sudo fwts acpidump -
Results generated by fwts: Version V18.03.00 (2018-03-21 07:09:58).

Some of this work - Copyright (c) 1999 - 2018, Intel Corp. All rights reserved.
Some of this work - Copyright (c) 2010 - 2018, Canonical.
Some of this work - Copyright (c) 2016 - 2018, IBM.
Some of this work - Copyright (c) 2017 - 2018, ARM Ltd.

This test run on 02/02/19 at 08:29:05 on host Linux redacted-infr01 4.15.0-43-generic #46-Ubuntu SMP Thu Dec 6 14:45:28 UTC 2018 x86_64.

Command: "fwts acpidump -".
Running tests: acpidump.

acpidump: Dump ACPI tables.
-----------------------------------------------------------------------------------------------------------------------------------------------------------------------
Test 1 of 1: Dump ACPI tables.
FADT X_FIRMWARE_CTRL 64 bit pointer was zero, falling back to using FIRMWARE_CTRL 32 bit pointer.
RSDP @ 6cad6000 (36 bytes)
----
[000h 0000   8]                    Signature : "RSD PTR "
[008h 0008   1]                     Checksum : 1d
[009h 0009   6]                       Oem ID : "REDACTED0"
[00fh 0015   1]                     Revision : 02
[010h 0016   4]                 RSDT Address : 6cad6028
[014h 0020   4]                 Table Length : 00000024
[018h 0024   8]                 XSDT Address : 000000006cad60c8
[020h 0032   1]            Extended Checksum : 9b
[021h 0033   3]                     Reserved : 00 00 00

XSDT @ 6cad60c8 (276 bytes)
----
[000h 0000   4]                    Signature : "XSDT"    [Extended System Description Table]
[004h 0004   4]                 Table Length : 00000114
[008h 0008   1]                     Revision : 01
[009h 0009   1]                     Checksum : 87
[00Ah 0010   6]                       Oem ID : "REDACTED0"
[010h 0016   8]                 Oem Table ID : "REDACTEDFOO"
[018h 0024   4]                 Oem Revision : xxxxxxxx
[01Ch 0028   4]              Asl Compiler ID : "AMI "
[020h 0032   4]        Asl Compiler Revision : 00010013
[024h 0036   8]       ACPI Table Address   0 : 000000006CB18708
[02Ch 0044   8]       ACPI Table Address   1 : 000000006CB18820
[034h 0052   8]       ACPI Table Address   2 : 000000006CB18868
[03Ch 0060   8]       ACPI Table Address   3 : 000000006CB18908
[044h 0068   8]       ACPI Table Address   4 : 000000006CB18950
[04Ch 0076   8]       ACPI Table Address   5 : 000000006CB189B0
[054h 0084   8]       ACPI Table Address   6 : 000000006CB189F8
[05Ch 0092   8]       ACPI Table Address   7 : 000000006CB18A38
[064h 0100   8]       ACPI Table Address   8 : 000000006CB18A70
[06Ch 0108   8]       ACPI Table Address   9 : 000000006CB196D0
[074h 0116   8]       ACPI Table Address  10 : 000000006CB19710
[07Ch 0124   8]       ACPI Table Address  11 : 000000006CB19778
[084h 0132   8]       ACPI Table Address  12 : 000000006CB317A0
[08Ch 0140   8]       ACPI Table Address  13 : 000000006CB317E8
[094h 0148   8]       ACPI Table Address  14 : 000000006CB31858
[09Ch 0156   8]       ACPI Table Address  15 : 000000006CB31888
[0A4h 0164   8]       ACPI Table Address  16 : 000000006CB318B8
[0ACh 0172   8]       ACPI Table Address  17 : 000000006CB32CE8
[0B4h 0180   8]       ACPI Table Address  18 : 000000006CB32D20
[0BCh 0188   8]       ACPI Table Address  19 : 000000006CB32D60
[0C4h 0196   8]       ACPI Table Address  20 : 000000006CB84158
[0CCh 0204   8]       ACPI Table Address  21 : 000000006CB992D0
[0D4h 0212   8]       ACPI Table Address  22 : 000000006CBA5D18
[0DCh 0220   8]       ACPI Table Address  23 : 000000006CBBFA18
[0E4h 0228   8]       ACPI Table Address  24 : 000000006CBC0078
[0ECh 0236   8]       ACPI Table Address  25 : 000000006CBC1BB0
[0F4h 0244   8]       ACPI Table Address  26 : 000000006CBC1DE8
[0FCh 0252   8]       ACPI Table Address  27 : 000000006CBC1E90
[104h 0260   8]       ACPI Table Address  28 : 000000006CBC1EC0
[10Ch 0268   8]       ACPI Table Address  29 : 000000006CBC20F0

FACS @ 6d234080 (64 bytes)
----
[000h 0000   4]                    Signature : "FACS"
[004h 0004   4]                       Length : deadbeef
[008h 0008   4]           Hardware Signature : deadbeef
[00Ch 0012   4]    32 Firmware Waking Vector : 00000000
[010h 0016   4]                  Global Lock : 00000000
[014h 0020   4]        Flags (decoded below) : 00000000
                      S4BIOS Support Present : 0
                  64-bit Wake Supported (V2) : 0
[018h 0024   8]    64 Firmware Waking Vector : 0000000000000000
[020h 0032   1]                      Version : 02
[021h 0033   3]                     Reserved : 000000
[024h 0036   4]    OspmFlags (decoded below) : 00000000
               64-bit Wake Env Required (V2) : 0

DSDT @ 6cad6278 (271503 bytes)
----
[000h 0000   4]                    Signature : "DSDT"
[004h 0004   4]                 Table Length : 0004248f
[008h 0008   1]                     Revision : 02
[009h 0009   1]                     Checksum : 81
[00Ah 0010   6]                       Oem ID : "REDACTED0"
[010h 0016   8]                 Oem Table ID : "REDACTEDFOO"
[018h 0024   4]                 Oem Revision : xxxxxxxx
[01Ch 0028   4]              Asl Compiler ID : "INTL"
[020h 0032   4]        Asl Compiler Revision : 20091013
Contains AML Object Code.

FACP @ 6cb18708 (276 bytes)
----
[000h 0000   4]                    Signature : "FACP"    [Fixed ACPI Description Table (FADT)]
[004h 0004   4]                 Table Length : 00000114
[008h 0008   1]                     Revision : 06
[009h 0009   1]                     Checksum : 76
[00Ah 0010   6]                       Oem ID : "REDACTED0"
[010h 0016   8]                 Oem Table ID : "REDACTEDFOO"
[018h 0024   4]                 Oem Revision : xxxxxxxx
[01Ch 0028   4]              Asl Compiler ID : "INTL"
[020h 0032   4]        Asl Compiler Revision : 20091013
[024h 0036   4]                 FACS Address : deadbeef
[028h 0040   4]                 DSDT Address : deadbeef
[02Ch 0044   1]                        Model : 00
[02Dh 0045   1]                   PM Profile : 04 [Enterprise Server]
[02Eh 0046   2]                SCI Interrupt : 0009
[030h 0048   4]             SMI Command Port : 000000B2
[034h 0052   1]            ACPI Enable Value : A0
[035h 0053   1]           ACPI Disable Value : A1
[036h 0054   1]               S4BIOS Command : 00
[037h 0055   1]              P-State Control : 00
[038h 0056   4]     PM1A Event Block Address : 00000500
[03Ch 0060   4]     PM1B Event Block Address : 00000000
[040h 0064   4]   PM1A Control Block Address : 00000504
[044h 0068   4]   PM1B Control Block Address : 00000000
[048h 0072   4]    PM2 Control Block Address : 00000550
[04Ch 0076   4]       PM Timer Block Address : 00000508
[050h 0080   4]           GPE0 Block Address : 00000580
[054h 0084   4]           GPE1 Block Address : 00000000
[058h 0088   1]       PM1 Event Block Length : 04
[059h 0089   1]     PM1 Control Block Length : 02
[05Ah 0090   1]     PM2 Control Block Length : 01
[05Bh 0091   1]        PM Timer Block Length : 04
[05Ch 0092   1]            GPE0 Block Length : 20
[05Dh 0093   1]            GPE1 Block Length : 00
[05Eh 0094   1]             GPE1 Base Offset : 00
[05Fh 0095   1]                 _CST Support : 00
[060h 0096   2]                   C2 Latency : 0065
[062h 0098   2]                   C3 Latency : 03E9
[064h 0100   2]               CPU Cache Size : 0400
[066h 0102   2]           Cache Flush Stride : 0010
[068h 0104   1]            Duty Cycle Offset : 01
[069h 0105   1]             Duty Cycle Width : 00
[06Ah 0106   1]          RTC Day Alarm Index : 0D
[06Bh 0107   1]        RTC Month Alarm Index : 00
[06Ch 0108   1]            RTC Century Index : 32
[06Dh 0109   2]   Boot Flags (decoded below) : 0011
               Legacy Devices Supported (V2) : 1
            8042 Present on ports 60/64 (V2) : 0
                        VGA Not Present (V4) : 0
                      MSI Not Supported (V4) : 0
                PCIe ASPM Not Supported (V4) : 1
                   CMOS RTC Not Present (V5) : 0
[06Fh 0111   1]                     Reserved : 00
[070h 0112   4]        Flags (decoded below) : 000084A5
      WBINVD instruction is operational (V1) : 1
              WBINVD flushes all caches (V1) : 0
                    All CPUs support C1 (V1) : 1
                  C2 works on MP system (V1) : 0
            Control Method Power Button (V1) : 0
            Control Method Sleep Button (V1) : 1
        RTC wake not in fixed reg space (V1) : 0
            RTC can wake system from S4 (V1) : 1
                        32-bit PM Timer (V1) : 0
                      Docking Supported (V1) : 0
               Reset Register Supported (V2) : 1
                            Sealed Case (V3) : 0
                    Headless - No Video (V3) : 0
        Use native instr after SLP_TYPx (V3) : 0
              PCIEXP_WAK Bits Supported (V4) : 0
                     Use Platform Timer (V4) : 1
               RTC_STS valid on S4 wake (V4) : 0
                Remote Power-on capable (V4) : 0
                 Use APIC Cluster Model (V4) : 0
     Use APIC Physical Destination Mode (V4) : 0
                       Hardware Reduced (V5) : 0
                      Low Power S0 Idle (V5) : 0
[074h 0116  12]               Reset Register : [Generic Address Structure]
[074h 0116   1]                     Space ID : 01 [SystemIO]
[075h 0117   1]                    Bit Width : 08
[076h 0118   1]                   Bit Offset : 00
[077h 0119   1]         Encoded Access Width : 00 [Undefined/Legacy]
[078h 0120   8]                      Address : 0000000000000CF9
[080h 0128   1]         Value to cause reset : 06
[081h 0129   2]    ARM Flags (decoded below) : 0000
                              PSCI Compliant : 0
                       Must use HVC for PSCI : 0
[083h 0131   1]          FADT Minor Revision : 01
[084h 0132   8]                 FACS Address : 0000000000000000
[08Ch 0140   8]                 DSDT Address : 000000006CAD6278
[094h 0148  12]             PM1A Event Block : [Generic Address Structure]
[094h 0148   1]                     Space ID : 01 [SystemIO]
[095h 0149   1]                    Bit Width : 20
[096h 0150   1]                   Bit Offset : 00
[097h 0151   1]         Encoded Access Width : 02 [Word Access:16]
[098h 0152   8]                      Address : 0000000000000500
[0A0h 0160  12]             PM1B Event Block : [Generic Address Structure]
[0A0h 0160   1]                     Space ID : 00 [SystemMemory]
[0A1h 0161   1]                    Bit Width : 00
[0A2h 0162   1]                   Bit Offset : 00
[0A3h 0163   1]         Encoded Access Width : 00 [Undefined/Legacy]
[0A4h 0164   8]                      Address : 0000000000000000
[0ACh 0172  12]           PM1A Control Block : [Generic Address Structure]
[0ACh 0172   1]                     Space ID : 01 [SystemIO]
[0ADh 0173   1]                    Bit Width : 10
[0AEh 0174   1]                   Bit Offset : 00
[0AFh 0175   1]         Encoded Access Width : 02 [Word Access:16]
[0B0h 0176   8]                      Address : 0000000000000504
[0B8h 0184  12]           PM1B Control Block : [Generic Address Structure]
[0B8h 0184   1]                     Space ID : 00 [SystemMemory]
[0B9h 0185   1]                    Bit Width : 00
[0BAh 0186   1]                   Bit Offset : 00
[0BBh 0187   1]         Encoded Access Width : 00 [Undefined/Legacy]
[0BCh 0188   8]                      Address : 0000000000000000
[0C4h 0196  12]            PM2 Control Block : [Generic Address Structure]
[0C4h 0196   1]                     Space ID : 01 [SystemIO]
[0C5h 0197   1]                    Bit Width : 08
[0C6h 0198   1]                   Bit Offset : 00
[0C7h 0199   1]         Encoded Access Width : 01 [Byte Access:8]
[0C8h 0200   8]                      Address : 0000000000000550
[0D0h 0208  12]               PM Timer Block : [Generic Address Structure]
[0D0h 0208   1]                     Space ID : 01 [SystemIO]
[0D1h 0209   1]                    Bit Width : 20
[0D2h 0210   1]                   Bit Offset : 00
[0D3h 0211   1]         Encoded Access Width : 03 [DWord Access:32]
[0D4h 0212   8]                      Address : 0000000000000508
[0DCh 0220  12]                   GPE0 Block : [Generic Address Structure]
[0DCh 0220   1]                     Space ID : 01 [SystemIO]
[0DDh 0221   1]                    Bit Width : FF
[0DEh 0222   1]                   Bit Offset : 00
[0DFh 0223   1]         Encoded Access Width : 01 [Byte Access:8]
[0E0h 0224   8]                      Address : 0000000000000580
[0E8h 0232  12]                   GPE1 Block : [Generic Address Structure]
[0E8h 0232   1]                     Space ID : 00 [SystemMemory]
[0E9h 0233   1]                    Bit Width : 00
[0EAh 0234   1]                   Bit Offset : 00
[0EBh 0235   1]         Encoded Access Width : 00 [Undefined/Legacy]
[0ECh 0236   8]                      Address : 0000000000000000
[0F4h 0244  12]       Sleep Control Register : [Generic Address Structure]
[0F4h 0244   1]                     Space ID : 00 [SystemMemory]
[0F5h 0245   1]                    Bit Width : 00
[0F6h 0246   1]                   Bit Offset : 00
[0F7h 0247   1]         Encoded Access Width : 00 [Undefined/Legacy]
[0F8h 0248   8]                      Address : 0000000000000000
[100h 0256  12]        Sleep Status Register : [Generic Address Structure]
[100h 0256   1]                     Space ID : 00 [SystemMemory]
[101h 0257   1]                    Bit Width : 00
[102h 0258   1]                   Bit Offset : 00
[103h 0259   1]         Encoded Access Width : 00 [Undefined/Legacy]
[104h 0260   8]                      Address : 0000000000000000
[10Ch 0268   8]                Hypervisor ID : 0000000000000000

FPDT @ 6cb18820 (68 bytes)
----
[000h 0000   4]                    Signature : "FPDT"    [Firmware Performance Data Table]
[004h 0004   4]                 Table Length : 00000044
[008h 0008   1]                     Revision : 01
[009h 0009   1]                     Checksum : F1
[00Ah 0010   6]                       Oem ID : "REDACTED0"
[010h 0016   8]                 Oem Table ID : "REDACTEDFOO"
[018h 0024   4]                 Oem Revision : xxxxxxxx
[01Ch 0028   4]              Asl Compiler ID : "AMI "
[020h 0032   4]        Asl Compiler Revision : 00010013
[024h 0036   2]                Subtable Type : 0001
[026h 0038   1]                       Length : 10
[027h 0039   1]                     Revision : 01
[028h 0040   4]                     Reserved : 00000000
[02Ch 0044   8]          S3PT Record Address : 000000006F072A70
[034h 0052   2]                Subtable Type : 0000
[036h 0054   1]                       Length : 10
[037h 0055   1]                     Revision : 01
[038h 0056   4]                     Reserved : 00000000
[03Ch 0060   8]     FPDT Boot Record Address : 000000006F072A90

FIDT @ 6cb18868 (156 bytes)
----
[000h 0000   4]                    Signature : "FIDT"    
[004h 0004   4]                 Table Length : 0000009C
[008h 0008   1]                     Revision : 01
[009h 0009   1]                     Checksum : 2A
[00Ah 0010   6]                       Oem ID : "REDACTED0"
[010h 0016   8]                 Oem Table ID : "REDACTEDFOO"
[018h 0024   4]                 Oem Revision : xxxxxxxx
[01Ch 0028   4]              Asl Compiler ID : "AMI "
[020h 0032   4]        Asl Compiler Revision : 00010013

  0000: 46 49 44 54 9c 00 00 00 01 2a 43 69 73 63 6f 30  FIDT.....*REDACTED0
  0010: 43 69 73 63 6f 55 43 53 09 20 07 01 41 4d 49 20  REDACTEDFOO. ..AMI 
  0020: 13 00 01 00 24 46 49 44 04 78 00 30 41 43 46 44  ....$FID.x.0ACFD
  0030: 30 38 37 00 b8 e3 9b 1b e4 7d 7f 4f a3 d0 f2 a9  087......}.O....
  0040: 8f a5 9b 42 30 35 00 31 32 00 30 30 00 38 37 00  ...B05.12.00.87.
  0050: e2 07 09 0c 03 26 31 ff ff 43 69 73 63 6f 30 43  .....&1..REDACTED0C
  0060: 69 73 63 6f 55 43 53 31 00 00 00 ff ff ff ff ff  iscoFOO1........
  0070: ff ff ff ff ff ff ff ff ff ff ff ff ff ff ff ff  ................
  0080: ff ff ff ff ff ff ff ff ff ff ff ff ff ff ff ff  ................
  0090: ff ff ff ff ff ff ff ff ff ff ff ff              ............

SPMI @ 6cb18908 (65 bytes)
----
[000h 0000   4]                    Signature : "SPMI"    [Server Platform Management Interface table]
[004h 0004   4]                 Table Length : 00000041
[008h 0008   1]                     Revision : 05
[009h 0009   1]                     Checksum : C3
[00Ah 0010   6]                       Oem ID : "REDACTED0"
[010h 0016   8]                 Oem Table ID : "REDACTEDFOO"
[018h 0024   4]                 Oem Revision : 00000000
[01Ch 0028   4]              Asl Compiler ID : "AMI."
[020h 0032   4]        Asl Compiler Revision : 00000000
[024h 0036   1]               Interface Type : 01
[025h 0037   1]                     Reserved : 01
[026h 0038   2]            IPMI Spec Version : 0200
[028h 0040   1]               Interrupt Type : 00
[029h 0041   1]                   GPE Number : 00
[02Ah 0042   1]                     Reserved : 00
[02Bh 0043   1]              PCI Device Flag : 00
[02Ch 0044   4]                    Interrupt : 00000000
[030h 0048  12]                IPMI Register : [Generic Address Structure]
[030h 0048   1]                     Space ID : 01 [SystemIO]
[031h 0049   1]                    Bit Width : 08
[032h 0050   1]                   Bit Offset : 00
[033h 0051   1]         Encoded Access Width : 01 [Byte Access:8]
[034h 0052   8]                      Address : 0000000000000CA2
[03Ch 0060   1]                  PCI Segment : 00
[03Dh 0061   1]                      PCI Bus : 00
[03Eh 0062   1]                   PCI Device : 00
[03Fh 0063   1]                 PCI Function : 00
[040h 0064   1]                     Reserved : 00

UEFI @ 6cb18950 (92 bytes)
----
[000h 0000   4]                    Signature : "UEFI"    [UEFI Boot Optimization Table]
[004h 0004   4]                 Table Length : 0000005C
[008h 0008   1]                     Revision : 01
[009h 0009   1]                     Checksum : A3
[00Ah 0010   6]                       Oem ID : "INTEL"
[010h 0016   8]                 Oem Table ID : "RstUefiV"
[018h 0024   4]                 Oem Revision : 00000000
[01Ch 0028   4]              Asl Compiler ID : ""
[020h 0032   4]        Asl Compiler Revision : 00000000
[024h 0036  16]              UUID Identifier : DEADBEEF-DEAD-BEEF-CAFE-DEADBEEFCAFE
[034h 0052   2]                  Data Offset : 0036

UEFI @ 6cb189b0 (66 bytes)
----
[000h 0000   4]                    Signature : "UEFI"    [UEFI Boot Optimization Table]
[004h 0004   4]                 Table Length : 00000042
[008h 0008   1]                     Revision : 01
[009h 0009   1]                     Checksum : 0F
[00Ah 0010   6]                       Oem ID : "REDACTED0"
[010h 0016   8]                 Oem Table ID : "REDACTEDFOO"
[018h 0024   4]                 Oem Revision : xxxxxxxx
[01Ch 0028   4]              Asl Compiler ID : "    "
[020h 0032   4]        Asl Compiler Revision : 01000013
[024h 0036  16]              UUID Identifier : DEADBEEF-DEAD-BEEF-CAFE-DEADBEEFCAFE
[034h 0052   2]                  Data Offset : 0036

MCFG @ 6cb189f8 (60 bytes)
----
[000h 0000   4]                    Signature : "MCFG"    [Memory Mapped Configuration table]
[004h 0004   4]                 Table Length : 0000003C
[008h 0008   1]                     Revision : 01
[009h 0009   1]                     Checksum : 28
[00Ah 0010   6]                       Oem ID : "REDACTED0"
[010h 0016   8]                 Oem Table ID : "REDACTEDFOO"
[018h 0024   4]                 Oem Revision : xxxxxxxx
[01Ch 0028   4]              Asl Compiler ID : "MSFT"
[020h 0032   4]        Asl Compiler Revision : 00000097
[024h 0036   8]                     Reserved : 0000000000000000
[02Ch 0044   8]                 Base Address : 0000000080000000
[034h 0052   2]         Segment Group Number : 0000
[036h 0054   1]             Start Bus Number : 00
[037h 0055   1]               End Bus Number : FF
[038h 0056   4]                     Reserved : 00000000

HPET @ 6cb18a38 (56 bytes)
----
[000h 0000   4]                    Signature : "HPET"    [High Precision Event Timer table]
[004h 0004   4]                 Table Length : 00000038
[008h 0008   1]                     Revision : 01
[009h 0009   1]                     Checksum : 34
[00Ah 0010   6]                       Oem ID : "REDACTED0"
[010h 0016   8]                 Oem Table ID : "REDACTEDFOO"
[018h 0024   4]                 Oem Revision : 00000001
[01Ch 0028   4]              Asl Compiler ID : "INTL"
[020h 0032   4]        Asl Compiler Revision : 20091013
[024h 0036   4]            Hardware Block ID : 8086A701
[028h 0040  12]         Timer Block Register : [Generic Address Structure]
[028h 0040   1]                     Space ID : 00 [SystemMemory]
[029h 0041   1]                    Bit Width : 40
[02Ah 0042   1]                   Bit Offset : 00
[02Bh 0043   1]         Encoded Access Width : 00 [Undefined/Legacy]
[02Ch 0044   8]                      Address : 00000000FED00000
[034h 0052   1]              Sequence Number : 00
[035h 0053   2]          Minimum Clock Ticks : 37EE
[037h 0055   1]        Flags (decoded below) : 00
                             4K Page Protect : 0
                            64K Page Protect : 0

APIC @ 6cb18a70 (3166 bytes)
----
[000h 0000   4]                    Signature : "APIC"    [Multiple APIC Description Table (MADT)]
[004h 0004   4]                 Table Length : 00000C5E
[008h 0008   1]                     Revision : 03
[009h 0009   1]                     Checksum : 00
[00Ah 0010   6]                       Oem ID : "REDACTED0"
[010h 0016   8]                 Oem Table ID : "REDACTEDFOO"
[018h 0024   4]                 Oem Revision : 00000000
[01Ch 0028   4]              Asl Compiler ID : "INTL"
[020h 0032   4]        Asl Compiler Revision : 20091013
[024h 0036   4]           Local Apic Address : FEE00000
[028h 0040   4]        Flags (decoded below) : 00000001
                         PC-AT Compatibility : 1
[02Ch 0044   1]                Subtable Type : 00 [Processor Local APIC]
[02Dh 0045   1]                       Length : 08
[02Eh 0046   1]                 Processor ID : 00
[02Fh 0047   1]                Local Apic ID : 00
[030h 0048   4]        Flags (decoded below) : 00000001
                           Processor Enabled : 1
[034h 0052   1]                Subtable Type : 00 [Processor Local APIC]
[035h 0053   1]                       Length : 08
[036h 0054   1]                 Processor ID : 02
[037h 0055   1]                Local Apic ID : 02
[038h 0056   4]        Flags (decoded below) : 00000001
                           Processor Enabled : 1
[03Ch 0060   1]                Subtable Type : 00 [Processor Local APIC]
[03Dh 0061   1]                       Length : 08
[03Eh 0062   1]                 Processor ID : 04
[03Fh 0063   1]                Local Apic ID : 04
[040h 0064   4]        Flags (decoded below) : 00000001
                           Processor Enabled : 1
[044h 0068   1]                Subtable Type : 00 [Processor Local APIC]
[045h 0069   1]                       Length : 08
[046h 0070   1]                 Processor ID : 06
[047h 0071   1]                Local Apic ID : 06
[048h 0072   4]        Flags (decoded below) : 00000001
                           Processor Enabled : 1
[04Ch 0076   1]                Subtable Type : 00 [Processor Local APIC]
[04Dh 0077   1]                       Length : 08
[04Eh 0078   1]                 Processor ID : 08
[04Fh 0079   1]                Local Apic ID : 08
[050h 0080   4]        Flags (decoded below) : 00000001
                           Processor Enabled : 1
[054h 0084   1]                Subtable Type : 00 [Processor Local APIC]
[055h 0085   1]                       Length : 08
[056h 0086   1]                 Processor ID : 0A
[057h 0087   1]                Local Apic ID : 0A
[058h 0088   4]        Flags (decoded below) : 00000001
                           Processor Enabled : 1
[05Ch 0092   1]                Subtable Type : 00 [Processor Local APIC]
[05Dh 0093   1]                       Length : 08
[05Eh 0094   1]                 Processor ID : 0C
[05Fh 0095   1]                Local Apic ID : 0C
[060h 0096   4]        Flags (decoded below) : 00000001
                           Processor Enabled : 1
[064h 0100   1]                Subtable Type : 00 [Processor Local APIC]
[065h 0101   1]                       Length : 08
[066h 0102   1]                 Processor ID : 10
[067h 0103   1]                Local Apic ID : 10
[068h 0104   4]        Flags (decoded below) : 00000001
                           Processor Enabled : 1
[06Ch 0108   1]                Subtable Type : 00 [Processor Local APIC]
[06Dh 0109   1]                       Length : 08
[06Eh 0110   1]                 Processor ID : 12
[06Fh 0111   1]                Local Apic ID : 12
[070h 0112   4]        Flags (decoded below) : 00000001
                           Processor Enabled : 1
[074h 0116   1]                Subtable Type : 00 [Processor Local APIC]
[075h 0117   1]                       Length : 08
[076h 0118   1]                 Processor ID : 14
[077h 0119   1]                Local Apic ID : 14
[078h 0120   4]        Flags (decoded below) : 00000001
                           Processor Enabled : 1
[07Ch 0124   1]                Subtable Type : 00 [Processor Local APIC]
[07Dh 0125   1]                       Length : 08
[07Eh 0126   1]                 Processor ID : 16
[07Fh 0127   1]                Local Apic ID : 16
[080h 0128   4]        Flags (decoded below) : 00000001
                           Processor Enabled : 1
[084h 0132   1]                Subtable Type : 00 [Processor Local APIC]
[085h 0133   1]                       Length : 08
[086h 0134   1]                 Processor ID : 18
[087h 0135   1]                Local Apic ID : 18
[088h 0136   4]        Flags (decoded below) : 00000001
                           Processor Enabled : 1
[08Ch 0140   1]                Subtable Type : 00 [Processor Local APIC]
[08Dh 0141   1]                       Length : 08
[08Eh 0142   1]                 Processor ID : 1A
[08Fh 0143   1]                Local Apic ID : 1A
[090h 0144   4]        Flags (decoded below) : 00000001
                           Processor Enabled : 1
[094h 0148   1]                Subtable Type : 00 [Processor Local APIC]
[095h 0149   1]                       Length : 08
[096h 0150   1]                 Processor ID : 1C
[097h 0151   1]                Local Apic ID : 1C
[098h 0152   4]        Flags (decoded below) : 00000001
                           Processor Enabled : 1
[09Ch 0156   1]                Subtable Type : 00 [Processor Local APIC]
[09Dh 0157   1]                       Length : 08
[09Eh 0158   1]                 Processor ID : 38
[09Fh 0159   1]                Local Apic ID : 20
[0A0h 0160   4]        Flags (decoded below) : 00000001
                           Processor Enabled : 1
[0A4h 0164   1]                Subtable Type : 00 [Processor Local APIC]
[0A5h 0165   1]                       Length : 08
[0A6h 0166   1]                 Processor ID : 3A
[0A7h 0167   1]                Local Apic ID : 22
[0A8h 0168   4]        Flags (decoded below) : 00000001
                           Processor Enabled : 1
[0ACh 0172   1]                Subtable Type : 00 [Processor Local APIC]
[0ADh 0173   1]                       Length : 08
[0AEh 0174   1]                 Processor ID : 3C
[0AFh 0175   1]                Local Apic ID : 24
[0B0h 0176   4]        Flags (decoded below) : 00000001
                           Processor Enabled : 1
[0B4h 0180   1]                Subtable Type : 00 [Processor Local APIC]
[0B5h 0181   1]                       Length : 08
[0B6h 0182   1]                 Processor ID : 3E
[0B7h 0183   1]                Local Apic ID : 26
[0B8h 0184   4]        Flags (decoded below) : 00000001
                           Processor Enabled : 1
[0BCh 0188   1]                Subtable Type : 00 [Processor Local APIC]
[0BDh 0189   1]                       Length : 08
[0BEh 0190   1]                 Processor ID : 40
[0BFh 0191   1]                Local Apic ID : 28
[0C0h 0192   4]        Flags (decoded below) : 00000001
                           Processor Enabled : 1
[0C4h 0196   1]                Subtable Type : 00 [Processor Local APIC]
[0C5h 0197   1]                       Length : 08
[0C6h 0198   1]                 Processor ID : 42
[0C7h 0199   1]                Local Apic ID : 2A
[0C8h 0200   4]        Flags (decoded below) : 00000001
                           Processor Enabled : 1
[0CCh 0204   1]                Subtable Type : 00 [Processor Local APIC]
[0CDh 0205   1]                       Length : 08
[0CEh 0206   1]                 Processor ID : 44
[0CFh 0207   1]                Local Apic ID : 2C
[0D0h 0208   4]        Flags (decoded below) : 00000001
                           Processor Enabled : 1
[0D4h 0212   1]                Subtable Type : 00 [Processor Local APIC]
[0D5h 0213   1]                       Length : 08
[0D6h 0214   1]                 Processor ID : 48
[0D7h 0215   1]                Local Apic ID : 30
[0D8h 0216   4]        Flags (decoded below) : 00000001
                           Processor Enabled : 1
[0DCh 0220   1]                Subtable Type : 00 [Processor Local APIC]
[0DDh 0221   1]                       Length : 08
[0DEh 0222   1]                 Processor ID : 4A
[0DFh 0223   1]                Local Apic ID : 32
[0E0h 0224   4]        Flags (decoded below) : 00000001
                           Processor Enabled : 1
[0E4h 0228   1]                Subtable Type : 00 [Processor Local APIC]
[0E5h 0229   1]                       Length : 08
[0E6h 0230   1]                 Processor ID : 4C
[0E7h 0231   1]                Local Apic ID : 34
[0E8h 0232   4]        Flags (decoded below) : 00000001
                           Processor Enabled : 1
[0ECh 0236   1]                Subtable Type : 00 [Processor Local APIC]
[0EDh 0237   1]                       Length : 08
[0EEh 0238   1]                 Processor ID : 4E
[0EFh 0239   1]                Local Apic ID : 36
[0F0h 0240   4]        Flags (decoded below) : 00000001
                           Processor Enabled : 1
[0F4h 0244   1]                Subtable Type : 00 [Processor Local APIC]
[0F5h 0245   1]                       Length : 08
[0F6h 0246   1]                 Processor ID : 50
[0F7h 0247   1]                Local Apic ID : 38
[0F8h 0248   4]        Flags (decoded below) : 00000001
                           Processor Enabled : 1
[0FCh 0252   1]                Subtable Type : 00 [Processor Local APIC]
[0FDh 0253   1]                       Length : 08
[0FEh 0254   1]                 Processor ID : 52
[0FFh 0255   1]                Local Apic ID : 3A
[100h 0256   4]        Flags (decoded below) : 00000001
                           Processor Enabled : 1
[104h 0260   1]                Subtable Type : 00 [Processor Local APIC]
[105h 0261   1]                       Length : 08
[106h 0262   1]                 Processor ID : 54
[107h 0263   1]                Local Apic ID : 3C
[108h 0264   4]        Flags (decoded below) : 00000001
                           Processor Enabled : 1
[10Ch 0268   1]                Subtable Type : 00 [Processor Local APIC]
[10Dh 0269   1]                       Length : 08
[10Eh 0270   1]                 Processor ID : 01
[10Fh 0271   1]                Local Apic ID : 01
[110h 0272   4]        Flags (decoded below) : 00000001
                           Processor Enabled : 1
[114h 0276   1]                Subtable Type : 00 [Processor Local APIC]
[115h 0277   1]                       Length : 08
[116h 0278   1]                 Processor ID : 03
[117h 0279   1]                Local Apic ID : 03
[118h 0280   4]        Flags (decoded below) : 00000001
                           Processor Enabled : 1
[11Ch 0284   1]                Subtable Type : 00 [Processor Local APIC]
[11Dh 0285   1]                       Length : 08
[11Eh 0286   1]                 Processor ID : 05
[11Fh 0287   1]                Local Apic ID : 05
[120h 0288   4]        Flags (decoded below) : 00000001
                           Processor Enabled : 1
[124h 0292   1]                Subtable Type : 00 [Processor Local APIC]
[125h 0293   1]                       Length : 08
[126h 0294   1]                 Processor ID : 07
[127h 0295   1]                Local Apic ID : 07
[128h 0296   4]        Flags (decoded below) : 00000001
                           Processor Enabled : 1
[12Ch 0300   1]                Subtable Type : 00 [Processor Local APIC]
[12Dh 0301   1]                       Length : 08
[12Eh 0302   1]                 Processor ID : 09
[12Fh 0303   1]                Local Apic ID : 09
[130h 0304   4]        Flags (decoded below) : 00000001
                           Processor Enabled : 1
[134h 0308   1]                Subtable Type : 00 [Processor Local APIC]
[135h 0309   1]                       Length : 08
[136h 0310   1]                 Processor ID : 0B
[137h 0311   1]                Local Apic ID : 0B
[138h 0312   4]        Flags (decoded below) : 00000001
                           Processor Enabled : 1
[13Ch 0316   1]                Subtable Type : 00 [Processor Local APIC]
[13Dh 0317   1]                       Length : 08
[13Eh 0318   1]                 Processor ID : 0D
[13Fh 0319   1]                Local Apic ID : 0D
[140h 0320   4]        Flags (decoded below) : 00000001
                           Processor Enabled : 1
[144h 0324   1]                Subtable Type : 00 [Processor Local APIC]
[145h 0325   1]                       Length : 08
[146h 0326   1]                 Processor ID : 11
[147h 0327   1]                Local Apic ID : 11
[148h 0328   4]        Flags (decoded below) : 00000001
                           Processor Enabled : 1
[14Ch 0332   1]                Subtable Type : 00 [Processor Local APIC]
[14Dh 0333   1]                       Length : 08
[14Eh 0334   1]                 Processor ID : 13
[14Fh 0335   1]                Local Apic ID : 13
[150h 0336   4]        Flags (decoded below) : 00000001
                           Processor Enabled : 1
[154h 0340   1]                Subtable Type : 00 [Processor Local APIC]
[155h 0341   1]                       Length : 08
[156h 0342   1]                 Processor ID : 15
[157h 0343   1]                Local Apic ID : 15
[158h 0344   4]        Flags (decoded below) : 00000001
                           Processor Enabled : 1
[15Ch 0348   1]                Subtable Type : 00 [Processor Local APIC]
[15Dh 0349   1]                       Length : 08
[15Eh 0350   1]                 Processor ID : 17
[15Fh 0351   1]                Local Apic ID : 17
[160h 0352   4]        Flags (decoded below) : 00000001
                           Processor Enabled : 1
[164h 0356   1]                Subtable Type : 00 [Processor Local APIC]
[165h 0357   1]                       Length : 08
[166h 0358   1]                 Processor ID : 19
[167h 0359   1]                Local Apic ID : 19
[168h 0360   4]        Flags (decoded below) : 00000001
                           Processor Enabled : 1
[16Ch 0364   1]                Subtable Type : 00 [Processor Local APIC]
[16Dh 0365   1]                       Length : 08
[16Eh 0366   1]                 Processor ID : 1B
[16Fh 0367   1]                Local Apic ID : 1B
[170h 0368   4]        Flags (decoded below) : 00000001
                           Processor Enabled : 1
[174h 0372   1]                Subtable Type : 00 [Processor Local APIC]
[175h 0373   1]                       Length : 08
[176h 0374   1]                 Processor ID : 1D
[177h 0375   1]                Local Apic ID : 1D
[178h 0376   4]        Flags (decoded below) : 00000001
                           Processor Enabled : 1
[17Ch 0380   1]                Subtable Type : 00 [Processor Local APIC]
[17Dh 0381   1]                       Length : 08
[17Eh 0382   1]                 Processor ID : 39
[17Fh 0383   1]                Local Apic ID : 21
[180h 0384   4]        Flags (decoded below) : 00000001
                           Processor Enabled : 1
[184h 0388   1]                Subtable Type : 00 [Processor Local APIC]
[185h 0389   1]                       Length : 08
[186h 0390   1]                 Processor ID : 3B
[187h 0391   1]                Local Apic ID : 23
[188h 0392   4]        Flags (decoded below) : 00000001
                           Processor Enabled : 1
[18Ch 0396   1]                Subtable Type : 00 [Processor Local APIC]
[18Dh 0397   1]                       Length : 08
[18Eh 0398   1]                 Processor ID : 3D
[18Fh 0399   1]                Local Apic ID : 25
[190h 0400   4]        Flags (decoded below) : 00000001
                           Processor Enabled : 1
[194h 0404   1]                Subtable Type : 00 [Processor Local APIC]
[195h 0405   1]                       Length : 08
[196h 0406   1]                 Processor ID : 3F
[197h 0407   1]                Local Apic ID : 27
[198h 0408   4]        Flags (decoded below) : 00000001
                           Processor Enabled : 1
[19Ch 0412   1]                Subtable Type : 00 [Processor Local APIC]
[19Dh 0413   1]                       Length : 08
[19Eh 0414   1]                 Processor ID : 41
[19Fh 0415   1]                Local Apic ID : 29
[1A0h 0416   4]        Flags (decoded below) : 00000001
                           Processor Enabled : 1
[1A4h 0420   1]                Subtable Type : 00 [Processor Local APIC]
[1A5h 0421   1]                       Length : 08
[1A6h 0422   1]                 Processor ID : 43
[1A7h 0423   1]                Local Apic ID : 2B
[1A8h 0424   4]        Flags (decoded below) : 00000001
                           Processor Enabled : 1
[1ACh 0428   1]                Subtable Type : 00 [Processor Local APIC]
[1ADh 0429   1]                       Length : 08
[1AEh 0430   1]                 Processor ID : 45
[1AFh 0431   1]                Local Apic ID : 2D
[1B0h 0432   4]        Flags (decoded below) : 00000001
                           Processor Enabled : 1
[1B4h 0436   1]                Subtable Type : 00 [Processor Local APIC]
[1B5h 0437   1]                       Length : 08
[1B6h 0438   1]                 Processor ID : 49
[1B7h 0439   1]                Local Apic ID : 31
[1B8h 0440   4]        Flags (decoded below) : 00000001
                           Processor Enabled : 1
[1BCh 0444   1]                Subtable Type : 00 [Processor Local APIC]
[1BDh 0445   1]                       Length : 08
[1BEh 0446   1]                 Processor ID : 4B
[1BFh 0447   1]                Local Apic ID : 33
[1C0h 0448   4]        Flags (decoded below) : 00000001
                           Processor Enabled : 1
[1C4h 0452   1]                Subtable Type : 00 [Processor Local APIC]
[1C5h 0453   1]                       Length : 08
[1C6h 0454   1]                 Processor ID : 4D
[1C7h 0455   1]                Local Apic ID : 35
[1C8h 0456   4]        Flags (decoded below) : 00000001
                           Processor Enabled : 1
[1CCh 0460   1]                Subtable Type : 00 [Processor Local APIC]
[1CDh 0461   1]                       Length : 08
[1CEh 0462   1]                 Processor ID : 4F
[1CFh 0463   1]                Local Apic ID : 37
[1D0h 0464   4]        Flags (decoded below) : 00000001
                           Processor Enabled : 1
[1D4h 0468   1]                Subtable Type : 00 [Processor Local APIC]
[1D5h 0469   1]                       Length : 08
[1D6h 0470   1]                 Processor ID : 51
[1D7h 0471   1]                Local Apic ID : 39
[1D8h 0472   4]        Flags (decoded below) : 00000001
                           Processor Enabled : 1
[1DCh 0476   1]                Subtable Type : 00 [Processor Local APIC]
[1DDh 0477   1]                       Length : 08
[1DEh 0478   1]                 Processor ID : 53
[1DFh 0479   1]                Local Apic ID : 3B
[1E0h 0480   4]        Flags (decoded below) : 00000001
                           Processor Enabled : 1
[1E4h 0484   1]                Subtable Type : 00 [Processor Local APIC]
[1E5h 0485   1]                       Length : 08
[1E6h 0486   1]                 Processor ID : 55
[1E7h 0487   1]                Local Apic ID : 3D
[1E8h 0488   4]        Flags (decoded below) : 00000001
                           Processor Enabled : 1
[1ECh 0492   1]                Subtable Type : 00 [Processor Local APIC]
[1EDh 0493   1]                       Length : 08
[1EEh 0494   1]                 Processor ID : FF
[1EFh 0495   1]                Local Apic ID : FF
[1F0h 0496   4]        Flags (decoded below) : 00000000
                           Processor Enabled : 0
[1F4h 0500   1]                Subtable Type : 00 [Processor Local APIC]
[1F5h 0501   1]                       Length : 08
[1F6h 0502   1]                 Processor ID : FF
[1F7h 0503   1]                Local Apic ID : FF
[1F8h 0504   4]        Flags (decoded below) : 00000000
                           Processor Enabled : 0
[1FCh 0508   1]                Subtable Type : 00 [Processor Local APIC]
[1FDh 0509   1]                       Length : 08
[1FEh 0510   1]                 Processor ID : FF
[1FFh 0511   1]                Local Apic ID : FF
[200h 0512   4]        Flags (decoded below) : 00000000
                           Processor Enabled : 0
[204h 0516   1]                Subtable Type : 00 [Processor Local APIC]
[205h 0517   1]                       Length : 08
[206h 0518   1]                 Processor ID : FF
[207h 0519   1]                Local Apic ID : FF
[208h 0520   4]        Flags (decoded below) : 00000000
                           Processor Enabled : 0
[20Ch 0524   1]                Subtable Type : 00 [Processor Local APIC]
[20Dh 0525   1]                       Length : 08
[20Eh 0526   1]                 Processor ID : FF
[20Fh 0527   1]                Local Apic ID : FF
[210h 0528   4]        Flags (decoded below) : 00000000
                           Processor Enabled : 0
[214h 0532   1]                Subtable Type : 00 [Processor Local APIC]
[215h 0533   1]                       Length : 08
[216h 0534   1]                 Processor ID : FF
[217h 0535   1]                Local Apic ID : FF
[218h 0536   4]        Flags (decoded below) : 00000000
                           Processor Enabled : 0
[21Ch 0540   1]                Subtable Type : 00 [Processor Local APIC]
[21Dh 0541   1]                       Length : 08
[21Eh 0542   1]                 Processor ID : FF
[21Fh 0543   1]                Local Apic ID : FF
[220h 0544   4]        Flags (decoded below) : 00000000
                           Processor Enabled : 0
[224h 0548   1]                Subtable Type : 00 [Processor Local APIC]
[225h 0549   1]                       Length : 08
[226h 0550   1]                 Processor ID : FF
[227h 0551   1]                Local Apic ID : FF
[228h 0552   4]        Flags (decoded below) : 00000000
                           Processor Enabled : 0
[22Ch 0556   1]                Subtable Type : 00 [Processor Local APIC]
[22Dh 0557   1]                       Length : 08
[22Eh 0558   1]                 Processor ID : FF
[22Fh 0559   1]                Local Apic ID : FF
[230h 0560   4]        Flags (decoded below) : 00000000
                           Processor Enabled : 0
[234h 0564   1]                Subtable Type : 00 [Processor Local APIC]
[235h 0565   1]                       Length : 08
[236h 0566   1]                 Processor ID : FF
[237h 0567   1]                Local Apic ID : FF
[238h 0568   4]        Flags (decoded below) : 00000000
                           Processor Enabled : 0
[23Ch 0572   1]                Subtable Type : 00 [Processor Local APIC]
[23Dh 0573   1]                       Length : 08
[23Eh 0574   1]                 Processor ID : FF
[23Fh 0575   1]                Local Apic ID : FF
[240h 0576   4]        Flags (decoded below) : 00000000
                           Processor Enabled : 0
[244h 0580   1]                Subtable Type : 00 [Processor Local APIC]
[245h 0581   1]                       Length : 08
[246h 0582   1]                 Processor ID : FF
[247h 0583   1]                Local Apic ID : FF
[248h 0584   4]        Flags (decoded below) : 00000000
                           Processor Enabled : 0
[24Ch 0588   1]                Subtable Type : 00 [Processor Local APIC]
[24Dh 0589   1]                       Length : 08
[24Eh 0590   1]                 Processor ID : FF
[24Fh 0591   1]                Local Apic ID : FF
[250h 0592   4]        Flags (decoded below) : 00000000
                           Processor Enabled : 0
[254h 0596   1]                Subtable Type : 00 [Processor Local APIC]
[255h 0597   1]                       Length : 08
[256h 0598   1]                 Processor ID : FF
[257h 0599   1]                Local Apic ID : FF
[258h 0600   4]        Flags (decoded below) : 00000000
                           Processor Enabled : 0
[25Ch 0604   1]                Subtable Type : 00 [Processor Local APIC]
[25Dh 0605   1]                       Length : 08
[25Eh 0606   1]                 Processor ID : FF
[25Fh 0607   1]                Local Apic ID : FF
[260h 0608   4]        Flags (decoded below) : 00000000
                           Processor Enabled : 0
[264h 0612   1]                Subtable Type : 00 [Processor Local APIC]
[265h 0613   1]                       Length : 08
[266h 0614   1]                 Processor ID : FF
[267h 0615   1]                Local Apic ID : FF
[268h 0616   4]        Flags (decoded below) : 00000000
                           Processor Enabled : 0
[26Ch 0620   1]                Subtable Type : 00 [Processor Local APIC]
[26Dh 0621   1]                       Length : 08
[26Eh 0622   1]                 Processor ID : FF
[26Fh 0623   1]                Local Apic ID : FF
[270h 0624   4]        Flags (decoded below) : 00000000
                           Processor Enabled : 0
[274h 0628   1]                Subtable Type : 00 [Processor Local APIC]
[275h 0629   1]                       Length : 08
[276h 0630   1]                 Processor ID : FF
[277h 0631   1]                Local Apic ID : FF
[278h 0632   4]        Flags (decoded below) : 00000000
                           Processor Enabled : 0
[27Ch 0636   1]                Subtable Type : 00 [Processor Local APIC]
[27Dh 0637   1]                       Length : 08
[27Eh 0638   1]                 Processor ID : FF
[27Fh 0639   1]                Local Apic ID : FF
[280h 0640   4]        Flags (decoded below) : 00000000
                           Processor Enabled : 0
[284h 0644   1]                Subtable Type : 00 [Processor Local APIC]
[285h 0645   1]                       Length : 08
[286h 0646   1]                 Processor ID : FF
[287h 0647   1]                Local Apic ID : FF
[288h 0648   4]        Flags (decoded below) : 00000000
                           Processor Enabled : 0
[28Ch 0652   1]                Subtable Type : 00 [Processor Local APIC]
[28Dh 0653   1]                       Length : 08
[28Eh 0654   1]                 Processor ID : FF
[28Fh 0655   1]                Local Apic ID : FF
[290h 0656   4]        Flags (decoded below) : 00000000
                           Processor Enabled : 0
[294h 0660   1]                Subtable Type : 00 [Processor Local APIC]
[295h 0661   1]                       Length : 08
[296h 0662   1]                 Processor ID : FF
[297h 0663   1]                Local Apic ID : FF
[298h 0664   4]        Flags (decoded below) : 00000000
                           Processor Enabled : 0
[29Ch 0668   1]                Subtable Type : 00 [Processor Local APIC]
[29Dh 0669   1]                       Length : 08
[29Eh 0670   1]                 Processor ID : FF
[29Fh 0671   1]                Local Apic ID : FF
[2A0h 0672   4]        Flags (decoded below) : 00000000
                           Processor Enabled : 0
[2A4h 0676   1]                Subtable Type : 00 [Processor Local APIC]
[2A5h 0677   1]                       Length : 08
[2A6h 0678   1]                 Processor ID : FF
[2A7h 0679   1]                Local Apic ID : FF
[2A8h 0680   4]        Flags (decoded below) : 00000000
                           Processor Enabled : 0
[2ACh 0684   1]                Subtable Type : 00 [Processor Local APIC]
[2ADh 0685   1]                       Length : 08
[2AEh 0686   1]                 Processor ID : FF
[2AFh 0687   1]                Local Apic ID : FF
[2B0h 0688   4]        Flags (decoded below) : 00000000
                           Processor Enabled : 0
[2B4h 0692   1]                Subtable Type : 00 [Processor Local APIC]
[2B5h 0693   1]                       Length : 08
[2B6h 0694   1]                 Processor ID : FF
[2B7h 0695   1]                Local Apic ID : FF
[2B8h 0696   4]        Flags (decoded below) : 00000000
                           Processor Enabled : 0
[2BCh 0700   1]                Subtable Type : 00 [Processor Local APIC]
[2BDh 0701   1]                       Length : 08
[2BEh 0702   1]                 Processor ID : FF
[2BFh 0703   1]                Local Apic ID : FF
[2C0h 0704   4]        Flags (decoded below) : 00000000
                           Processor Enabled : 0
[2C4h 0708   1]                Subtable Type : 00 [Processor Local APIC]
[2C5h 0709   1]                       Length : 08
[2C6h 0710   1]                 Processor ID : FF
[2C7h 0711   1]                Local Apic ID : FF
[2C8h 0712   4]        Flags (decoded below) : 00000000
                           Processor Enabled : 0
[2CCh 0716   1]                Subtable Type : 00 [Processor Local APIC]
[2CDh 0717   1]                       Length : 08
[2CEh 0718   1]                 Processor ID : FF
[2CFh 0719   1]                Local Apic ID : FF
[2D0h 0720   4]        Flags (decoded below) : 00000000
                           Processor Enabled : 0
[2D4h 0724   1]                Subtable Type : 00 [Processor Local APIC]
[2D5h 0725   1]                       Length : 08
[2D6h 0726   1]                 Processor ID : FF
[2D7h 0727   1]                Local Apic ID : FF
[2D8h 0728   4]        Flags (decoded below) : 00000000
                           Processor Enabled : 0
[2DCh 0732   1]                Subtable Type : 00 [Processor Local APIC]
[2DDh 0733   1]                       Length : 08
[2DEh 0734   1]                 Processor ID : FF
[2DFh 0735   1]                Local Apic ID : FF
[2E0h 0736   4]        Flags (decoded below) : 00000000
                           Processor Enabled : 0
[2E4h 0740   1]                Subtable Type : 00 [Processor Local APIC]
[2E5h 0741   1]                       Length : 08
[2E6h 0742   1]                 Processor ID : FF
[2E7h 0743   1]                Local Apic ID : FF
[2E8h 0744   4]        Flags (decoded below) : 00000000
                           Processor Enabled : 0
[2ECh 0748   1]                Subtable Type : 00 [Processor Local APIC]
[2EDh 0749   1]                       Length : 08
[2EEh 0750   1]                 Processor ID : FF
[2EFh 0751   1]                Local Apic ID : FF
[2F0h 0752   4]        Flags (decoded below) : 00000000
                           Processor Enabled : 0
[2F4h 0756   1]                Subtable Type : 00 [Processor Local APIC]
[2F5h 0757   1]                       Length : 08
[2F6h 0758   1]                 Processor ID : FF
[2F7h 0759   1]                Local Apic ID : FF
[2F8h 0760   4]        Flags (decoded below) : 00000000
                           Processor Enabled : 0
[2FCh 0764   1]                Subtable Type : 00 [Processor Local APIC]
[2FDh 0765   1]                       Length : 08
[2FEh 0766   1]                 Processor ID : FF
[2FFh 0767   1]                Local Apic ID : FF
[300h 0768   4]        Flags (decoded below) : 00000000
                           Processor Enabled : 0
[304h 0772   1]                Subtable Type : 00 [Processor Local APIC]
[305h 0773   1]                       Length : 08
[306h 0774   1]                 Processor ID : FF
[307h 0775   1]                Local Apic ID : FF
[308h 0776   4]        Flags (decoded below) : 00000000
                           Processor Enabled : 0
[30Ch 0780   1]                Subtable Type : 00 [Processor Local APIC]
[30Dh 0781   1]                       Length : 08
[30Eh 0782   1]                 Processor ID : FF
[30Fh 0783   1]                Local Apic ID : FF
[310h 0784   4]        Flags (decoded below) : 00000000
                           Processor Enabled : 0
[314h 0788   1]                Subtable Type : 00 [Processor Local APIC]
[315h 0789   1]                       Length : 08
[316h 0790   1]                 Processor ID : FF
[317h 0791   1]                Local Apic ID : FF
[318h 0792   4]        Flags (decoded below) : 00000000
                           Processor Enabled : 0
[31Ch 0796   1]                Subtable Type : 00 [Processor Local APIC]
[31Dh 0797   1]                       Length : 08
[31Eh 0798   1]                 Processor ID : FF
[31Fh 0799   1]                Local Apic ID : FF
[320h 0800   4]        Flags (decoded below) : 00000000
                           Processor Enabled : 0
[324h 0804   1]                Subtable Type : 00 [Processor Local APIC]
[325h 0805   1]                       Length : 08
[326h 0806   1]                 Processor ID : FF
[327h 0807   1]                Local Apic ID : FF
[328h 0808   4]        Flags (decoded below) : 00000000
                           Processor Enabled : 0
[32Ch 0812   1]                Subtable Type : 00 [Processor Local APIC]
[32Dh 0813   1]                       Length : 08
[32Eh 0814   1]                 Processor ID : FF
[32Fh 0815   1]                Local Apic ID : FF
[330h 0816   4]        Flags (decoded below) : 00000000
                           Processor Enabled : 0
[334h 0820   1]                Subtable Type : 00 [Processor Local APIC]
[335h 0821   1]                       Length : 08
[336h 0822   1]                 Processor ID : FF
[337h 0823   1]                Local Apic ID : FF
[338h 0824   4]        Flags (decoded below) : 00000000
                           Processor Enabled : 0
[33Ch 0828   1]                Subtable Type : 00 [Processor Local APIC]
[33Dh 0829   1]                       Length : 08
[33Eh 0830   1]                 Processor ID : FF
[33Fh 0831   1]                Local Apic ID : FF
[340h 0832   4]        Flags (decoded below) : 00000000
                           Processor Enabled : 0
[344h 0836   1]                Subtable Type : 00 [Processor Local APIC]
[345h 0837   1]                       Length : 08
[346h 0838   1]                 Processor ID : FF
[347h 0839   1]                Local Apic ID : FF
[348h 0840   4]        Flags (decoded below) : 00000000
                           Processor Enabled : 0
[34Ch 0844   1]                Subtable Type : 00 [Processor Local APIC]
[34Dh 0845   1]                       Length : 08
[34Eh 0846   1]                 Processor ID : FF
[34Fh 0847   1]                Local Apic ID : FF
[350h 0848   4]        Flags (decoded below) : 00000000
                           Processor Enabled : 0
[354h 0852   1]                Subtable Type : 00 [Processor Local APIC]
[355h 0853   1]                       Length : 08
[356h 0854   1]                 Processor ID : FF
[357h 0855   1]                Local Apic ID : FF
[358h 0856   4]        Flags (decoded below) : 00000000
                           Processor Enabled : 0
[35Ch 0860   1]                Subtable Type : 00 [Processor Local APIC]
[35Dh 0861   1]                       Length : 08
[35Eh 0862   1]                 Processor ID : FF
[35Fh 0863   1]                Local Apic ID : FF
[360h 0864   4]        Flags (decoded below) : 00000000
                           Processor Enabled : 0
[364h 0868   1]                Subtable Type : 00 [Processor Local APIC]
[365h 0869   1]                       Length : 08
[366h 0870   1]                 Processor ID : FF
[367h 0871   1]                Local Apic ID : FF
[368h 0872   4]        Flags (decoded below) : 00000000
                           Processor Enabled : 0
[36Ch 0876   1]                Subtable Type : 00 [Processor Local APIC]
[36Dh 0877   1]                       Length : 08
[36Eh 0878   1]                 Processor ID : FF
[36Fh 0879   1]                Local Apic ID : FF
[370h 0880   4]        Flags (decoded below) : 00000000
                           Processor Enabled : 0
[374h 0884   1]                Subtable Type : 00 [Processor Local APIC]
[375h 0885   1]                       Length : 08
[376h 0886   1]                 Processor ID : FF
[377h 0887   1]                Local Apic ID : FF
[378h 0888   4]        Flags (decoded below) : 00000000
                           Processor Enabled : 0
[37Ch 0892   1]                Subtable Type : 00 [Processor Local APIC]
[37Dh 0893   1]                       Length : 08
[37Eh 0894   1]                 Processor ID : FF
[37Fh 0895   1]                Local Apic ID : FF
[380h 0896   4]        Flags (decoded below) : 00000000
                           Processor Enabled : 0
[384h 0900   1]                Subtable Type : 00 [Processor Local APIC]
[385h 0901   1]                       Length : 08
[386h 0902   1]                 Processor ID : FF
[387h 0903   1]                Local Apic ID : FF
[388h 0904   4]        Flags (decoded below) : 00000000
                           Processor Enabled : 0
[38Ch 0908   1]                Subtable Type : 00 [Processor Local APIC]
[38Dh 0909   1]                       Length : 08
[38Eh 0910   1]                 Processor ID : FF
[38Fh 0911   1]                Local Apic ID : FF
[390h 0912   4]        Flags (decoded below) : 00000000
                           Processor Enabled : 0
[394h 0916   1]                Subtable Type : 00 [Processor Local APIC]
[395h 0917   1]                       Length : 08
[396h 0918   1]                 Processor ID : FF
[397h 0919   1]                Local Apic ID : FF
[398h 0920   4]        Flags (decoded below) : 00000000
                           Processor Enabled : 0
[39Ch 0924   1]                Subtable Type : 00 [Processor Local APIC]
[39Dh 0925   1]                       Length : 08
[39Eh 0926   1]                 Processor ID : FF
[39Fh 0927   1]                Local Apic ID : FF
[3A0h 0928   4]        Flags (decoded below) : 00000000
                           Processor Enabled : 0
[3A4h 0932   1]                Subtable Type : 00 [Processor Local APIC]
[3A5h 0933   1]                       Length : 08
[3A6h 0934   1]                 Processor ID : FF
[3A7h 0935   1]                Local Apic ID : FF
[3A8h 0936   4]        Flags (decoded below) : 00000000
                           Processor Enabled : 0
[3ACh 0940   1]                Subtable Type : 01 [I/O APIC]
[3ADh 0941   1]                       Length : 0C
[3AEh 0942   1]                  I/O Apic ID : 08
[3AFh 0943   1]                     Reserved : 00
[3B0h 0944   4]                      Address : FEC00000
[3B4h 0948   4]                    Interrupt : 00000000
[3B8h 0952   1]                Subtable Type : 01 [I/O APIC]
[3B9h 0953   1]                       Length : 0C
[3BAh 0954   1]                  I/O Apic ID : 09
[3BBh 0955   1]                     Reserved : 00
[3BCh 0956   4]                      Address : FEC01000
[3C0h 0960   4]                    Interrupt : 00000018
[3C4h 0964   1]                Subtable Type : 01 [I/O APIC]
[3C5h 0965   1]                       Length : 0C
[3C6h 0966   1]                  I/O Apic ID : 0A
[3C7h 0967   1]                     Reserved : 00
[3C8h 0968   4]                      Address : FEC08000
[3CCh 0972   4]                    Interrupt : 00000020
[3D0h 0976   1]                Subtable Type : 01 [I/O APIC]
[3D1h 0977   1]                       Length : 0C
[3D2h 0978   1]                  I/O Apic ID : 0B
[3D3h 0979   1]                     Reserved : 00
[3D4h 0980   4]                      Address : FEC10000
[3D8h 0984   4]                    Interrupt : 00000028
[3DCh 0988   1]                Subtable Type : 01 [I/O APIC]
[3DDh 0989   1]                       Length : 0C
[3DEh 0990   1]                  I/O Apic ID : 0C
[3DFh 0991   1]                     Reserved : 00
[3E0h 0992   4]                      Address : FEC18000
[3E4h 0996   4]                    Interrupt : 00000030
[3E8h 1000   1]                Subtable Type : 7F [Unknown Subtable Type]
[3E9h 1001   1]                       Length : 0C
**** Unknown MADT subtable type 0x7F
[3F4h 1012   1]                Subtable Type : 7F [Unknown Subtable Type]
[3F5h 1013   1]                       Length : 0C
**** Unknown MADT subtable type 0x7F
[400h 1024   1]                Subtable Type : 01 [I/O APIC]
[401h 1025   1]                       Length : 0C
[402h 1026   1]                  I/O Apic ID : 0F
[403h 1027   1]                     Reserved : 00
[404h 1028   4]                      Address : FEC20000
[408h 1032   4]                    Interrupt : 00000048
[40Ch 1036   1]                Subtable Type : 01 [I/O APIC]
[40Dh 1037   1]                       Length : 0C
[40Eh 1038   1]                  I/O Apic ID : 10
[40Fh 1039   1]                     Reserved : 00
[410h 1040   4]                      Address : FEC28000
[414h 1044   4]                    Interrupt : 00000050
[418h 1048   1]                Subtable Type : 01 [I/O APIC]
[419h 1049   1]                       Length : 0C
[41Ah 1050   1]                  I/O Apic ID : 11
[41Bh 1051   1]                     Reserved : 00
[41Ch 1052   4]                      Address : FEC30000
[420h 1056   4]                    Interrupt : 00000058
[424h 1060   1]                Subtable Type : 01 [I/O APIC]
[425h 1061   1]                       Length : 0C
[426h 1062   1]                  I/O Apic ID : 12
[427h 1063   1]                     Reserved : 00
[428h 1064   4]                      Address : FEC38000
[42Ch 1068   4]                    Interrupt : 00000060
[430h 1072   1]                Subtable Type : 7F [Unknown Subtable Type]
[431h 1073   1]                       Length : 0C
**** Unknown MADT subtable type 0x7F
[43Ch 1084   1]                Subtable Type : 7F [Unknown Subtable Type]
[43Dh 1085   1]                       Length : 0C
**** Unknown MADT subtable type 0x7F
[448h 1096   1]                Subtable Type : 7F [Unknown Subtable Type]
[449h 1097   1]                       Length : 0C
**** Unknown MADT subtable type 0x7F
[454h 1108   1]                Subtable Type : 7F [Unknown Subtable Type]
[455h 1109   1]                       Length : 0C
**** Unknown MADT subtable type 0x7F
[460h 1120   1]                Subtable Type : 7F [Unknown Subtable Type]
[461h 1121   1]                       Length : 0C
**** Unknown MADT subtable type 0x7F
[46Ch 1132   1]                Subtable Type : 7F [Unknown Subtable Type]
[46Dh 1133   1]                       Length : 0C
**** Unknown MADT subtable type 0x7F
[478h 1144   1]                Subtable Type : 7F [Unknown Subtable Type]
[479h 1145   1]                       Length : 0C
**** Unknown MADT subtable type 0x7F
[484h 1156   1]                Subtable Type : 7F [Unknown Subtable Type]
[485h 1157   1]                       Length : 0C
**** Unknown MADT subtable type 0x7F
[490h 1168   1]                Subtable Type : 7F [Unknown Subtable Type]
[491h 1169   1]                       Length : 0C
**** Unknown MADT subtable type 0x7F
[49Ch 1180   1]                Subtable Type : 7F [Unknown Subtable Type]
[49Dh 1181   1]                       Length : 0C
**** Unknown MADT subtable type 0x7F
[4A8h 1192   1]                Subtable Type : 7F [Unknown Subtable Type]
[4A9h 1193   1]                       Length : 0C
**** Unknown MADT subtable type 0x7F
[4B4h 1204   1]                Subtable Type : 7F [Unknown Subtable Type]
[4B5h 1205   1]                       Length : 0C
**** Unknown MADT subtable type 0x7F
[4C0h 1216   1]                Subtable Type : 7F [Unknown Subtable Type]
[4C1h 1217   1]                       Length : 0C
**** Unknown MADT subtable type 0x7F
[4CCh 1228   1]                Subtable Type : 7F [Unknown Subtable Type]
[4CDh 1229   1]                       Length : 0C
**** Unknown MADT subtable type 0x7F
[4D8h 1240   1]                Subtable Type : 7F [Unknown Subtable Type]
[4D9h 1241   1]                       Length : 0C
**** Unknown MADT subtable type 0x7F
[4E4h 1252   1]                Subtable Type : 7F [Unknown Subtable Type]
[4E5h 1253   1]                       Length : 0C
**** Unknown MADT subtable type 0x7F
[4F0h 1264   1]                Subtable Type : 7F [Unknown Subtable Type]
[4F1h 1265   1]                       Length : 0C
**** Unknown MADT subtable type 0x7F
[4FCh 1276   1]                Subtable Type : 7F [Unknown Subtable Type]
[4FDh 1277   1]                       Length : 0C
**** Unknown MADT subtable type 0x7F
[508h 1288   1]                Subtable Type : 7F [Unknown Subtable Type]
[509h 1289   1]                       Length : 0C
**** Unknown MADT subtable type 0x7F
[514h 1300   1]                Subtable Type : 7F [Unknown Subtable Type]
[515h 1301   1]                       Length : 0C
**** Unknown MADT subtable type 0x7F
[520h 1312   1]                Subtable Type : 7F [Unknown Subtable Type]
[521h 1313   1]                       Length : 0C
**** Unknown MADT subtable type 0x7F
[52Ch 1324   1]                Subtable Type : 7F [Unknown Subtable Type]
[52Dh 1325   1]                       Length : 0C
**** Unknown MADT subtable type 0x7F
[538h 1336   1]                Subtable Type : 02 [Interrupt Source Override]
[539h 1337   1]                       Length : 0A
[53Ah 1338   1]                          Bus : 00
[53Bh 1339   1]                       Source : 00
[53Ch 1340   4]                    Interrupt : 00000002
[540h 1344   2]        Flags (decoded below) : 0000
                                    Polarity : 0
                                Trigger Mode : 0
[542h 1346   1]                Subtable Type : 02 [Interrupt Source Override]
[543h 1347   1]                       Length : 0A
[544h 1348   1]                          Bus : 00
[545h 1349   1]                       Source : 09
[546h 1350   4]                    Interrupt : 00000009
[54Ah 1354   2]        Flags (decoded below) : 000D
                                    Polarity : 1
                                Trigger Mode : 3
[54Ch 1356   1]                Subtable Type : 04 [Local APIC NMI]
[54Dh 1357   1]                       Length : 06
[54Eh 1358   1]                 Processor ID : FF
[54Fh 1359   2]        Flags (decoded below) : 000D
                                    Polarity : 1
                                Trigger Mode : 3
[551h 1361   1]         Interrupt Input LINT : 01
[552h 1362   1]                Subtable Type : 09 [Processor Local x2APIC]
[553h 1363   1]                       Length : 10
[554h 1364   2]                     Reserved : 0000
[556h 1366   4]          Processor x2Apic ID : FFFFFFFF
[55Ah 1370   4]        Flags (decoded below) : 00000000
                           Processor Enabled : 0
[55Eh 1374   4]                Processor UID : 00000000
[562h 1378   1]                Subtable Type : 09 [Processor Local x2APIC]
[563h 1379   1]                       Length : 10
[564h 1380   2]                     Reserved : 0000
[566h 1382   4]          Processor x2Apic ID : FFFFFFFF
[56Ah 1386   4]        Flags (decoded below) : 00000000
                           Processor Enabled : 0
[56Eh 1390   4]                Processor UID : 00000001
[572h 1394   1]                Subtable Type : 09 [Processor Local x2APIC]
[573h 1395   1]                       Length : 10
[574h 1396   2]                     Reserved : 0000
[576h 1398   4]          Processor x2Apic ID : FFFFFFFF
[57Ah 1402   4]        Flags (decoded below) : 00000000
                           Processor Enabled : 0
[57Eh 1406   4]                Processor UID : 00000002
[582h 1410   1]                Subtable Type : 09 [Processor Local x2APIC]
[583h 1411   1]                       Length : 10
[584h 1412   2]                     Reserved : 0000
[586h 1414   4]          Processor x2Apic ID : FFFFFFFF
[58Ah 1418   4]        Flags (decoded below) : 00000000
                           Processor Enabled : 0
[58Eh 1422   4]                Processor UID : 00000003
[592h 1426   1]                Subtable Type : 09 [Processor Local x2APIC]
[593h 1427   1]                       Length : 10
[594h 1428   2]                     Reserved : 0000
[596h 1430   4]          Processor x2Apic ID : FFFFFFFF
[59Ah 1434   4]        Flags (decoded below) : 00000000
                           Processor Enabled : 0
[59Eh 1438   4]                Processor UID : 00000004
[5A2h 1442   1]                Subtable Type : 09 [Processor Local x2APIC]
[5A3h 1443   1]                       Length : 10
[5A4h 1444   2]                     Reserved : 0000
[5A6h 1446   4]          Processor x2Apic ID : FFFFFFFF
[5AAh 1450   4]        Flags (decoded below) : 00000000
                           Processor Enabled : 0
[5AEh 1454   4]                Processor UID : 00000005
[5B2h 1458   1]                Subtable Type : 09 [Processor Local x2APIC]
[5B3h 1459   1]                       Length : 10
[5B4h 1460   2]                     Reserved : 0000
[5B6h 1462   4]          Processor x2Apic ID : FFFFFFFF
[5BAh 1466   4]        Flags (decoded below) : 00000000
                           Processor Enabled : 0
[5BEh 1470   4]                Processor UID : 00000006
[5C2h 1474   1]                Subtable Type : 09 [Processor Local x2APIC]
[5C3h 1475   1]                       Length : 10
[5C4h 1476   2]                     Reserved : 0000
[5C6h 1478   4]          Processor x2Apic ID : FFFFFFFF
[5CAh 1482   4]        Flags (decoded below) : 00000000
                           Processor Enabled : 0
[5CEh 1486   4]                Processor UID : 00000007
[5D2h 1490   1]                Subtable Type : 09 [Processor Local x2APIC]
[5D3h 1491   1]                       Length : 10
[5D4h 1492   2]                     Reserved : 0000
[5D6h 1494   4]          Processor x2Apic ID : FFFFFFFF
[5DAh 1498   4]        Flags (decoded below) : 00000000
                           Processor Enabled : 0
[5DEh 1502   4]                Processor UID : 00000008
[5E2h 1506   1]                Subtable Type : 09 [Processor Local x2APIC]
[5E3h 1507   1]                       Length : 10
[5E4h 1508   2]                     Reserved : 0000
[5E6h 1510   4]          Processor x2Apic ID : FFFFFFFF
[5EAh 1514   4]        Flags (decoded below) : 00000000
                           Processor Enabled : 0
[5EEh 1518   4]                Processor UID : 00000009
[5F2h 1522   1]                Subtable Type : 09 [Processor Local x2APIC]
[5F3h 1523   1]                       Length : 10
[5F4h 1524   2]                     Reserved : 0000
[5F6h 1526   4]          Processor x2Apic ID : FFFFFFFF
[5FAh 1530   4]        Flags (decoded below) : 00000000
                           Processor Enabled : 0
[5FEh 1534   4]                Processor UID : 0000000A
[602h 1538   1]                Subtable Type : 09 [Processor Local x2APIC]
[603h 1539   1]                       Length : 10
[604h 1540   2]                     Reserved : 0000
[606h 1542   4]          Processor x2Apic ID : FFFFFFFF
[60Ah 1546   4]        Flags (decoded below) : 00000000
                           Processor Enabled : 0
[60Eh 1550   4]                Processor UID : 0000000B
[612h 1554   1]                Subtable Type : 09 [Processor Local x2APIC]
[613h 1555   1]                       Length : 10
[614h 1556   2]                     Reserved : 0000
[616h 1558   4]          Processor x2Apic ID : FFFFFFFF
[61Ah 1562   4]        Flags (decoded below) : 00000000
                           Processor Enabled : 0
[61Eh 1566   4]                Processor UID : 0000000C
[622h 1570   1]                Subtable Type : 09 [Processor Local x2APIC]
[623h 1571   1]                       Length : 10
[624h 1572   2]                     Reserved : 0000
[626h 1574   4]          Processor x2Apic ID : FFFFFFFF
[62Ah 1578   4]        Flags (decoded below) : 00000000
                           Processor Enabled : 0
[62Eh 1582   4]                Processor UID : 0000000D
[632h 1586   1]                Subtable Type : 09 [Processor Local x2APIC]
[633h 1587   1]                       Length : 10
[634h 1588   2]                     Reserved : 0000
[636h 1590   4]          Processor x2Apic ID : FFFFFFFF
[63Ah 1594   4]        Flags (decoded below) : 00000000
                           Processor Enabled : 0
[63Eh 1598   4]                Processor UID : 0000000E
[642h 1602   1]                Subtable Type : 09 [Processor Local x2APIC]
[643h 1603   1]                       Length : 10
[644h 1604   2]                     Reserved : 0000
[646h 1606   4]          Processor x2Apic ID : FFFFFFFF
[64Ah 1610   4]        Flags (decoded below) : 00000000
                           Processor Enabled : 0
[64Eh 1614   4]                Processor UID : 0000000F
[652h 1618   1]                Subtable Type : 09 [Processor Local x2APIC]
[653h 1619   1]                       Length : 10
[654h 1620   2]                     Reserved : 0000
[656h 1622   4]          Processor x2Apic ID : FFFFFFFF
[65Ah 1626   4]        Flags (decoded below) : 00000000
                           Processor Enabled : 0
[65Eh 1630   4]                Processor UID : 00000010
[662h 1634   1]                Subtable Type : 09 [Processor Local x2APIC]
[663h 1635   1]                       Length : 10
[664h 1636   2]                     Reserved : 0000
[666h 1638   4]          Processor x2Apic ID : FFFFFFFF
[66Ah 1642   4]        Flags (decoded below) : 00000000
                           Processor Enabled : 0
[66Eh 1646   4]                Processor UID : 00000011
[672h 1650   1]                Subtable Type : 09 [Processor Local x2APIC]
[673h 1651   1]                       Length : 10
[674h 1652   2]                     Reserved : 0000
[676h 1654   4]          Processor x2Apic ID : FFFFFFFF
[67Ah 1658   4]        Flags (decoded below) : 00000000
                           Processor Enabled : 0
[67Eh 1662   4]                Processor UID : 00000012
[682h 1666   1]                Subtable Type : 09 [Processor Local x2APIC]
[683h 1667   1]                       Length : 10
[684h 1668   2]                     Reserved : 0000
[686h 1670   4]          Processor x2Apic ID : FFFFFFFF
[68Ah 1674   4]        Flags (decoded below) : 00000000
                           Processor Enabled : 0
[68Eh 1678   4]                Processor UID : 00000013
[692h 1682   1]                Subtable Type : 09 [Processor Local x2APIC]
[693h 1683   1]                       Length : 10
[694h 1684   2]                     Reserved : 0000
[696h 1686   4]          Processor x2Apic ID : FFFFFFFF
[69Ah 1690   4]        Flags (decoded below) : 00000000
                           Processor Enabled : 0
[69Eh 1694   4]                Processor UID : 00000014
[6A2h 1698   1]                Subtable Type : 09 [Processor Local x2APIC]
[6A3h 1699   1]                       Length : 10
[6A4h 1700   2]                     Reserved : 0000
[6A6h 1702   4]          Processor x2Apic ID : FFFFFFFF
[6AAh 1706   4]        Flags (decoded below) : 00000000
                           Processor Enabled : 0
[6AEh 1710   4]                Processor UID : 00000015
[6B2h 1714   1]                Subtable Type : 09 [Processor Local x2APIC]
[6B3h 1715   1]                       Length : 10
[6B4h 1716   2]                     Reserved : 0000
[6B6h 1718   4]          Processor x2Apic ID : FFFFFFFF
[6BAh 1722   4]        Flags (decoded below) : 00000000
                           Processor Enabled : 0
[6BEh 1726   4]                Processor UID : 00000016
[6C2h 1730   1]                Subtable Type : 09 [Processor Local x2APIC]
[6C3h 1731   1]                       Length : 10
[6C4h 1732   2]                     Reserved : 0000
[6C6h 1734   4]          Processor x2Apic ID : FFFFFFFF
[6CAh 1738   4]        Flags (decoded below) : 00000000
                           Processor Enabled : 0
[6CEh 1742   4]                Processor UID : 00000017
[6D2h 1746   1]                Subtable Type : 09 [Processor Local x2APIC]
[6D3h 1747   1]                       Length : 10
[6D4h 1748   2]                     Reserved : 0000
[6D6h 1750   4]          Processor x2Apic ID : FFFFFFFF
[6DAh 1754   4]        Flags (decoded below) : 00000000
                           Processor Enabled : 0
[6DEh 1758   4]                Processor UID : 00000018
[6E2h 1762   1]                Subtable Type : 09 [Processor Local x2APIC]
[6E3h 1763   1]                       Length : 10
[6E4h 1764   2]                     Reserved : 0000
[6E6h 1766   4]          Processor x2Apic ID : FFFFFFFF
[6EAh 1770   4]        Flags (decoded below) : 00000000
                           Processor Enabled : 0
[6EEh 1774   4]                Processor UID : 00000019
[6F2h 1778   1]                Subtable Type : 09 [Processor Local x2APIC]
[6F3h 1779   1]                       Length : 10
[6F4h 1780   2]                     Reserved : 0000
[6F6h 1782   4]          Processor x2Apic ID : FFFFFFFF
[6FAh 1786   4]        Flags (decoded below) : 00000000
                           Processor Enabled : 0
[6FEh 1790   4]                Processor UID : 0000001A
[702h 1794   1]                Subtable Type : 09 [Processor Local x2APIC]
[703h 1795   1]                       Length : 10
[704h 1796   2]                     Reserved : 0000
[706h 1798   4]          Processor x2Apic ID : FFFFFFFF
[70Ah 1802   4]        Flags (decoded below) : 00000000
                           Processor Enabled : 0
[70Eh 1806   4]                Processor UID : 0000001B
[712h 1810   1]                Subtable Type : 09 [Processor Local x2APIC]
[713h 1811   1]                       Length : 10
[714h 1812   2]                     Reserved : 0000
[716h 1814   4]          Processor x2Apic ID : FFFFFFFF
[71Ah 1818   4]        Flags (decoded below) : 00000000
                           Processor Enabled : 0
[71Eh 1822   4]                Processor UID : 0000001C
[722h 1826   1]                Subtable Type : 09 [Processor Local x2APIC]
[723h 1827   1]                       Length : 10
[724h 1828   2]                     Reserved : 0000
[726h 1830   4]          Processor x2Apic ID : FFFFFFFF
[72Ah 1834   4]        Flags (decoded below) : 00000000
                           Processor Enabled : 0
[72Eh 1838   4]                Processor UID : 0000001D
[732h 1842   1]                Subtable Type : 09 [Processor Local x2APIC]
[733h 1843   1]                       Length : 10
[734h 1844   2]                     Reserved : 0000
[736h 1846   4]          Processor x2Apic ID : FFFFFFFF
[73Ah 1850   4]        Flags (decoded below) : 00000000
                           Processor Enabled : 0
[73Eh 1854   4]                Processor UID : 0000001E
[742h 1858   1]                Subtable Type : 09 [Processor Local x2APIC]
[743h 1859   1]                       Length : 10
[744h 1860   2]                     Reserved : 0000
[746h 1862   4]          Processor x2Apic ID : FFFFFFFF
[74Ah 1866   4]        Flags (decoded below) : 00000000
                           Processor Enabled : 0
[74Eh 1870   4]                Processor UID : 0000001F
[752h 1874   1]                Subtable Type : 09 [Processor Local x2APIC]
[753h 1875   1]                       Length : 10
[754h 1876   2]                     Reserved : 0000
[756h 1878   4]          Processor x2Apic ID : FFFFFFFF
[75Ah 1882   4]        Flags (decoded below) : 00000000
                           Processor Enabled : 0
[75Eh 1886   4]                Processor UID : 00000020
[762h 1890   1]                Subtable Type : 09 [Processor Local x2APIC]
[763h 1891   1]                       Length : 10
[764h 1892   2]                     Reserved : 0000
[766h 1894   4]          Processor x2Apic ID : FFFFFFFF
[76Ah 1898   4]        Flags (decoded below) : 00000000
                           Processor Enabled : 0
[76Eh 1902   4]                Processor UID : 00000021
[772h 1906   1]                Subtable Type : 09 [Processor Local x2APIC]
[773h 1907   1]                       Length : 10
[774h 1908   2]                     Reserved : 0000
[776h 1910   4]          Processor x2Apic ID : FFFFFFFF
[77Ah 1914   4]        Flags (decoded below) : 00000000
                           Processor Enabled : 0
[77Eh 1918   4]                Processor UID : 00000022
[782h 1922   1]                Subtable Type : 09 [Processor Local x2APIC]
[783h 1923   1]                       Length : 10
[784h 1924   2]                     Reserved : 0000
[786h 1926   4]          Processor x2Apic ID : FFFFFFFF
[78Ah 1930   4]        Flags (decoded below) : 00000000
                           Processor Enabled : 0
[78Eh 1934   4]                Processor UID : 00000023
[792h 1938   1]                Subtable Type : 09 [Processor Local x2APIC]
[793h 1939   1]                       Length : 10
[794h 1940   2]                     Reserved : 0000
[796h 1942   4]          Processor x2Apic ID : FFFFFFFF
[79Ah 1946   4]        Flags (decoded below) : 00000000
                           Processor Enabled : 0
[79Eh 1950   4]                Processor UID : 00000024
[7A2h 1954   1]                Subtable Type : 09 [Processor Local x2APIC]
[7A3h 1955   1]                       Length : 10
[7A4h 1956   2]                     Reserved : 0000
[7A6h 1958   4]          Processor x2Apic ID : FFFFFFFF
[7AAh 1962   4]        Flags (decoded below) : 00000000
                           Processor Enabled : 0
[7AEh 1966   4]                Processor UID : 00000025
[7B2h 1970   1]                Subtable Type : 09 [Processor Local x2APIC]
[7B3h 1971   1]                       Length : 10
[7B4h 1972   2]                     Reserved : 0000
[7B6h 1974   4]          Processor x2Apic ID : FFFFFFFF
[7BAh 1978   4]        Flags (decoded below) : 00000000
                           Processor Enabled : 0
[7BEh 1982   4]                Processor UID : 00000026
[7C2h 1986   1]                Subtable Type : 09 [Processor Local x2APIC]
[7C3h 1987   1]                       Length : 10
[7C4h 1988   2]                     Reserved : 0000
[7C6h 1990   4]          Processor x2Apic ID : FFFFFFFF
[7CAh 1994   4]        Flags (decoded below) : 00000000
                           Processor Enabled : 0
[7CEh 1998   4]                Processor UID : 00000027
[7D2h 2002   1]                Subtable Type : 09 [Processor Local x2APIC]
[7D3h 2003   1]                       Length : 10
[7D4h 2004   2]                     Reserved : 0000
[7D6h 2006   4]          Processor x2Apic ID : FFFFFFFF
[7DAh 2010   4]        Flags (decoded below) : 00000000
                           Processor Enabled : 0
[7DEh 2014   4]                Processor UID : 00000028
[7E2h 2018   1]                Subtable Type : 09 [Processor Local x2APIC]
[7E3h 2019   1]                       Length : 10
[7E4h 2020   2]                     Reserved : 0000
[7E6h 2022   4]          Processor x2Apic ID : FFFFFFFF
[7EAh 2026   4]        Flags (decoded below) : 00000000
                           Processor Enabled : 0
[7EEh 2030   4]                Processor UID : 00000029
[7F2h 2034   1]                Subtable Type : 09 [Processor Local x2APIC]
[7F3h 2035   1]                       Length : 10
[7F4h 2036   2]                     Reserved : 0000
[7F6h 2038   4]          Processor x2Apic ID : FFFFFFFF
[7FAh 2042   4]        Flags (decoded below) : 00000000
                           Processor Enabled : 0
[7FEh 2046   4]                Processor UID : 0000002A
[802h 2050   1]                Subtable Type : 09 [Processor Local x2APIC]
[803h 2051   1]                       Length : 10
[804h 2052   2]                     Reserved : 0000
[806h 2054   4]          Processor x2Apic ID : FFFFFFFF
[80Ah 2058   4]        Flags (decoded below) : 00000000
                           Processor Enabled : 0
[80Eh 2062   4]                Processor UID : 0000002B
[812h 2066   1]                Subtable Type : 09 [Processor Local x2APIC]
[813h 2067   1]                       Length : 10
[814h 2068   2]                     Reserved : 0000
[816h 2070   4]          Processor x2Apic ID : FFFFFFFF
[81Ah 2074   4]        Flags (decoded below) : 00000000
                           Processor Enabled : 0
[81Eh 2078   4]                Processor UID : 0000002C
[822h 2082   1]                Subtable Type : 09 [Processor Local x2APIC]
[823h 2083   1]                       Length : 10
[824h 2084   2]                     Reserved : 0000
[826h 2086   4]          Processor x2Apic ID : FFFFFFFF
[82Ah 2090   4]        Flags (decoded below) : 00000000
                           Processor Enabled : 0
[82Eh 2094   4]                Processor UID : 0000002D
[832h 2098   1]                Subtable Type : 09 [Processor Local x2APIC]
[833h 2099   1]                       Length : 10
[834h 2100   2]                     Reserved : 0000
[836h 2102   4]          Processor x2Apic ID : FFFFFFFF
[83Ah 2106   4]        Flags (decoded below) : 00000000
                           Processor Enabled : 0
[83Eh 2110   4]                Processor UID : 0000002E
[842h 2114   1]                Subtable Type : 09 [Processor Local x2APIC]
[843h 2115   1]                       Length : 10
[844h 2116   2]                     Reserved : 0000
[846h 2118   4]          Processor x2Apic ID : FFFFFFFF
[84Ah 2122   4]        Flags (decoded below) : 00000000
                           Processor Enabled : 0
[84Eh 2126   4]                Processor UID : 0000002F
[852h 2130   1]                Subtable Type : 09 [Processor Local x2APIC]
[853h 2131   1]                       Length : 10
[854h 2132   2]                     Reserved : 0000
[856h 2134   4]          Processor x2Apic ID : FFFFFFFF
[85Ah 2138   4]        Flags (decoded below) : 00000000
                           Processor Enabled : 0
[85Eh 2142   4]                Processor UID : 00000030
[862h 2146   1]                Subtable Type : 09 [Processor Local x2APIC]
[863h 2147   1]                       Length : 10
[864h 2148   2]                     Reserved : 0000
[866h 2150   4]          Processor x2Apic ID : FFFFFFFF
[86Ah 2154   4]        Flags (decoded below) : 00000000
                           Processor Enabled : 0
[86Eh 2158   4]                Processor UID : 00000031
[872h 2162   1]                Subtable Type : 09 [Processor Local x2APIC]
[873h 2163   1]                       Length : 10
[874h 2164   2]                     Reserved : 0000
[876h 2166   4]          Processor x2Apic ID : FFFFFFFF
[87Ah 2170   4]        Flags (decoded below) : 00000000
                           Processor Enabled : 0
[87Eh 2174   4]                Processor UID : 00000032
[882h 2178   1]                Subtable Type : 09 [Processor Local x2APIC]
[883h 2179   1]                       Length : 10
[884h 2180   2]                     Reserved : 0000
[886h 2182   4]          Processor x2Apic ID : FFFFFFFF
[88Ah 2186   4]        Flags (decoded below) : 00000000
                           Processor Enabled : 0
[88Eh 2190   4]                Processor UID : 00000033
[892h 2194   1]                Subtable Type : 09 [Processor Local x2APIC]
[893h 2195   1]                       Length : 10
[894h 2196   2]                     Reserved : 0000
[896h 2198   4]          Processor x2Apic ID : FFFFFFFF
[89Ah 2202   4]        Flags (decoded below) : 00000000
                           Processor Enabled : 0
[89Eh 2206   4]                Processor UID : 00000034
[8A2h 2210   1]                Subtable Type : 09 [Processor Local x2APIC]
[8A3h 2211   1]                       Length : 10
[8A4h 2212   2]                     Reserved : 0000
[8A6h 2214   4]          Processor x2Apic ID : FFFFFFFF
[8AAh 2218   4]        Flags (decoded below) : 00000000
                           Processor Enabled : 0
[8AEh 2222   4]                Processor UID : 00000035
[8B2h 2226   1]                Subtable Type : 09 [Processor Local x2APIC]
[8B3h 2227   1]                       Length : 10
[8B4h 2228   2]                     Reserved : 0000
[8B6h 2230   4]          Processor x2Apic ID : FFFFFFFF
[8BAh 2234   4]        Flags (decoded below) : 00000000
                           Processor Enabled : 0
[8BEh 2238   4]                Processor UID : 00000036
[8C2h 2242   1]                Subtable Type : 09 [Processor Local x2APIC]
[8C3h 2243   1]                       Length : 10
[8C4h 2244   2]                     Reserved : 0000
[8C6h 2246   4]          Processor x2Apic ID : FFFFFFFF
[8CAh 2250   4]        Flags (decoded below) : 00000000
                           Processor Enabled : 0
[8CEh 2254   4]                Processor UID : 00000037
[8D2h 2258   1]                Subtable Type : 09 [Processor Local x2APIC]
[8D3h 2259   1]                       Length : 10
[8D4h 2260   2]                     Reserved : 0000
[8D6h 2262   4]          Processor x2Apic ID : FFFFFFFF
[8DAh 2266   4]        Flags (decoded below) : 00000000
                           Processor Enabled : 0
[8DEh 2270   4]                Processor UID : 00000038
[8E2h 2274   1]                Subtable Type : 09 [Processor Local x2APIC]
[8E3h 2275   1]                       Length : 10
[8E4h 2276   2]                     Reserved : 0000
[8E6h 2278   4]          Processor x2Apic ID : FFFFFFFF
[8EAh 2282   4]        Flags (decoded below) : 00000000
                           Processor Enabled : 0
[8EEh 2286   4]                Processor UID : 00000039
[8F2h 2290   1]                Subtable Type : 09 [Processor Local x2APIC]
[8F3h 2291   1]                       Length : 10
[8F4h 2292   2]                     Reserved : 0000
[8F6h 2294   4]          Processor x2Apic ID : FFFFFFFF
[8FAh 2298   4]        Flags (decoded below) : 00000000
                           Processor Enabled : 0
[8FEh 2302   4]                Processor UID : 0000003A
[902h 2306   1]                Subtable Type : 09 [Processor Local x2APIC]
[903h 2307   1]                       Length : 10
[904h 2308   2]                     Reserved : 0000
[906h 2310   4]          Processor x2Apic ID : FFFFFFFF
[90Ah 2314   4]        Flags (decoded below) : 00000000
                           Processor Enabled : 0
[90Eh 2318   4]                Processor UID : 0000003B
[912h 2322   1]                Subtable Type : 09 [Processor Local x2APIC]
[913h 2323   1]                       Length : 10
[914h 2324   2]                     Reserved : 0000
[916h 2326   4]          Processor x2Apic ID : FFFFFFFF
[91Ah 2330   4]        Flags (decoded below) : 00000000
                           Processor Enabled : 0
[91Eh 2334   4]                Processor UID : 0000003C
[922h 2338   1]                Subtable Type : 09 [Processor Local x2APIC]
[923h 2339   1]                       Length : 10
[924h 2340   2]                     Reserved : 0000
[926h 2342   4]          Processor x2Apic ID : FFFFFFFF
[92Ah 2346   4]        Flags (decoded below) : 00000000
                           Processor Enabled : 0
[92Eh 2350   4]                Processor UID : 0000003D
[932h 2354   1]                Subtable Type : 09 [Processor Local x2APIC]
[933h 2355   1]                       Length : 10
[934h 2356   2]                     Reserved : 0000
[936h 2358   4]          Processor x2Apic ID : FFFFFFFF
[93Ah 2362   4]        Flags (decoded below) : 00000000
                           Processor Enabled : 0
[93Eh 2366   4]                Processor UID : 0000003E
[942h 2370   1]                Subtable Type : 09 [Processor Local x2APIC]
[943h 2371   1]                       Length : 10
[944h 2372   2]                     Reserved : 0000
[946h 2374   4]          Processor x2Apic ID : FFFFFFFF
[94Ah 2378   4]        Flags (decoded below) : 00000000
                           Processor Enabled : 0
[94Eh 2382   4]                Processor UID : 0000003F
[952h 2386   1]                Subtable Type : 09 [Processor Local x2APIC]
[953h 2387   1]                       Length : 10
[954h 2388   2]                     Reserved : 0000
[956h 2390   4]          Processor x2Apic ID : FFFFFFFF
[95Ah 2394   4]        Flags (decoded below) : 00000000
                           Processor Enabled : 0
[95Eh 2398   4]                Processor UID : 00000040
[962h 2402   1]                Subtable Type : 09 [Processor Local x2APIC]
[963h 2403   1]                       Length : 10
[964h 2404   2]                     Reserved : 0000
[966h 2406   4]          Processor x2Apic ID : FFFFFFFF
[96Ah 2410   4]        Flags (decoded below) : 00000000
                           Processor Enabled : 0
[96Eh 2414   4]                Processor UID : 00000041
[972h 2418   1]                Subtable Type : 09 [Processor Local x2APIC]
[973h 2419   1]                       Length : 10
[974h 2420   2]                     Reserved : 0000
[976h 2422   4]          Processor x2Apic ID : FFFFFFFF
[97Ah 2426   4]        Flags (decoded below) : 00000000
                           Processor Enabled : 0
[97Eh 2430   4]                Processor UID : 00000042
[982h 2434   1]                Subtable Type : 09 [Processor Local x2APIC]
[983h 2435   1]                       Length : 10
[984h 2436   2]                     Reserved : 0000
[986h 2438   4]          Processor x2Apic ID : FFFFFFFF
[98Ah 2442   4]        Flags (decoded below) : 00000000
                           Processor Enabled : 0
[98Eh 2446   4]                Processor UID : 00000043
[992h 2450   1]                Subtable Type : 09 [Processor Local x2APIC]
[993h 2451   1]                       Length : 10
[994h 2452   2]                     Reserved : 0000
[996h 2454   4]          Processor x2Apic ID : FFFFFFFF
[99Ah 2458   4]        Flags (decoded below) : 00000000
                           Processor Enabled : 0
[99Eh 2462   4]                Processor UID : 00000044
[9A2h 2466   1]                Subtable Type : 09 [Processor Local x2APIC]
[9A3h 2467   1]                       Length : 10
[9A4h 2468   2]                     Reserved : 0000
[9A6h 2470   4]          Processor x2Apic ID : FFFFFFFF
[9AAh 2474   4]        Flags (decoded below) : 00000000
                           Processor Enabled : 0
[9AEh 2478   4]                Processor UID : 00000045
[9B2h 2482   1]                Subtable Type : 09 [Processor Local x2APIC]
[9B3h 2483   1]                       Length : 10
[9B4h 2484   2]                     Reserved : 0000
[9B6h 2486   4]          Processor x2Apic ID : FFFFFFFF
[9BAh 2490   4]        Flags (decoded below) : 00000000
                           Processor Enabled : 0
[9BEh 2494   4]                Processor UID : 00000046
[9C2h 2498   1]                Subtable Type : 09 [Processor Local x2APIC]
[9C3h 2499   1]                       Length : 10
[9C4h 2500   2]                     Reserved : 0000
[9C6h 2502   4]          Processor x2Apic ID : FFFFFFFF
[9CAh 2506   4]        Flags (decoded below) : 00000000
                           Processor Enabled : 0
[9CEh 2510   4]                Processor UID : 00000047
[9D2h 2514   1]                Subtable Type : 09 [Processor Local x2APIC]
[9D3h 2515   1]                       Length : 10
[9D4h 2516   2]                     Reserved : 0000
[9D6h 2518   4]          Processor x2Apic ID : FFFFFFFF
[9DAh 2522   4]        Flags (decoded below) : 00000000
                           Processor Enabled : 0
[9DEh 2526   4]                Processor UID : 00000048
[9E2h 2530   1]                Subtable Type : 09 [Processor Local x2APIC]
[9E3h 2531   1]                       Length : 10
[9E4h 2532   2]                     Reserved : 0000
[9E6h 2534   4]          Processor x2Apic ID : FFFFFFFF
[9EAh 2538   4]        Flags (decoded below) : 00000000
                           Processor Enabled : 0
[9EEh 2542   4]                Processor UID : 00000049
[9F2h 2546   1]                Subtable Type : 09 [Processor Local x2APIC]
[9F3h 2547   1]                       Length : 10
[9F4h 2548   2]                     Reserved : 0000
[9F6h 2550   4]          Processor x2Apic ID : FFFFFFFF
[9FAh 2554   4]        Flags (decoded below) : 00000000
                           Processor Enabled : 0
[9FEh 2558   4]                Processor UID : 0000004A
[A02h 2562   1]                Subtable Type : 09 [Processor Local x2APIC]
[A03h 2563   1]                       Length : 10
[A04h 2564   2]                     Reserved : 0000
[A06h 2566   4]          Processor x2Apic ID : FFFFFFFF
[A0Ah 2570   4]        Flags (decoded below) : 00000000
                           Processor Enabled : 0
[A0Eh 2574   4]                Processor UID : 0000004B
[A12h 2578   1]                Subtable Type : 09 [Processor Local x2APIC]
[A13h 2579   1]                       Length : 10
[A14h 2580   2]                     Reserved : 0000
[A16h 2582   4]          Processor x2Apic ID : FFFFFFFF
[A1Ah 2586   4]        Flags (decoded below) : 00000000
                           Processor Enabled : 0
[A1Eh 2590   4]                Processor UID : 0000004C
[A22h 2594   1]                Subtable Type : 09 [Processor Local x2APIC]
[A23h 2595   1]                       Length : 10
[A24h 2596   2]                     Reserved : 0000
[A26h 2598   4]          Processor x2Apic ID : FFFFFFFF
[A2Ah 2602   4]        Flags (decoded below) : 00000000
                           Processor Enabled : 0
[A2Eh 2606   4]                Processor UID : 0000004D
[A32h 2610   1]                Subtable Type : 09 [Processor Local x2APIC]
[A33h 2611   1]                       Length : 10
[A34h 2612   2]                     Reserved : 0000
[A36h 2614   4]          Processor x2Apic ID : FFFFFFFF
[A3Ah 2618   4]        Flags (decoded below) : 00000000
                           Processor Enabled : 0
[A3Eh 2622   4]                Processor UID : 0000004E
[A42h 2626   1]                Subtable Type : 09 [Processor Local x2APIC]
[A43h 2627   1]                       Length : 10
[A44h 2628   2]                     Reserved : 0000
[A46h 2630   4]          Processor x2Apic ID : FFFFFFFF
[A4Ah 2634   4]        Flags (decoded below) : 00000000
                           Processor Enabled : 0
[A4Eh 2638   4]                Processor UID : 0000004F
[A52h 2642   1]                Subtable Type : 09 [Processor Local x2APIC]
[A53h 2643   1]                       Length : 10
[A54h 2644   2]                     Reserved : 0000
[A56h 2646   4]          Processor x2Apic ID : FFFFFFFF
[A5Ah 2650   4]        Flags (decoded below) : 00000000
                           Processor Enabled : 0
[A5Eh 2654   4]                Processor UID : 00000050
[A62h 2658   1]                Subtable Type : 09 [Processor Local x2APIC]
[A63h 2659   1]                       Length : 10
[A64h 2660   2]                     Reserved : 0000
[A66h 2662   4]          Processor x2Apic ID : FFFFFFFF
[A6Ah 2666   4]        Flags (decoded below) : 00000000
                           Processor Enabled : 0
[A6Eh 2670   4]                Processor UID : 00000051
[A72h 2674   1]                Subtable Type : 09 [Processor Local x2APIC]
[A73h 2675   1]                       Length : 10
[A74h 2676   2]                     Reserved : 0000
[A76h 2678   4]          Processor x2Apic ID : FFFFFFFF
[A7Ah 2682   4]        Flags (decoded below) : 00000000
                           Processor Enabled : 0
[A7Eh 2686   4]                Processor UID : 00000052
[A82h 2690   1]                Subtable Type : 09 [Processor Local x2APIC]
[A83h 2691   1]                       Length : 10
[A84h 2692   2]                     Reserved : 0000
[A86h 2694   4]          Processor x2Apic ID : FFFFFFFF
[A8Ah 2698   4]        Flags (decoded below) : 00000000
                           Processor Enabled : 0
[A8Eh 2702   4]                Processor UID : 00000053
[A92h 2706   1]                Subtable Type : 09 [Processor Local x2APIC]
[A93h 2707   1]                       Length : 10
[A94h 2708   2]                     Reserved : 0000
[A96h 2710   4]          Processor x2Apic ID : FFFFFFFF
[A9Ah 2714   4]        Flags (decoded below) : 00000000
                           Processor Enabled : 0
[A9Eh 2718   4]                Processor UID : 00000054
[AA2h 2722   1]                Subtable Type : 09 [Processor Local x2APIC]
[AA3h 2723   1]                       Length : 10
[AA4h 2724   2]                     Reserved : 0000
[AA6h 2726   4]          Processor x2Apic ID : FFFFFFFF
[AAAh 2730   4]        Flags (decoded below) : 00000000
                           Processor Enabled : 0
[AAEh 2734   4]                Processor UID : 00000055
[AB2h 2738   1]                Subtable Type : 09 [Processor Local x2APIC]
[AB3h 2739   1]                       Length : 10
[AB4h 2740   2]                     Reserved : 0000
[AB6h 2742   4]          Processor x2Apic ID : FFFFFFFF
[ABAh 2746   4]        Flags (decoded below) : 00000000
                           Processor Enabled : 0
[ABEh 2750   4]                Processor UID : 00000056
[AC2h 2754   1]                Subtable Type : 09 [Processor Local x2APIC]
[AC3h 2755   1]                       Length : 10
[AC4h 2756   2]                     Reserved : 0000
[AC6h 2758   4]          Processor x2Apic ID : FFFFFFFF
[ACAh 2762   4]        Flags (decoded below) : 00000000
                           Processor Enabled : 0
[ACEh 2766   4]                Processor UID : 00000057
[AD2h 2770   1]                Subtable Type : 09 [Processor Local x2APIC]
[AD3h 2771   1]                       Length : 10
[AD4h 2772   2]                     Reserved : 0000
[AD6h 2774   4]          Processor x2Apic ID : FFFFFFFF
[ADAh 2778   4]        Flags (decoded below) : 00000000
                           Processor Enabled : 0
[ADEh 2782   4]                Processor UID : 00000058
[AE2h 2786   1]                Subtable Type : 09 [Processor Local x2APIC]
[AE3h 2787   1]                       Length : 10
[AE4h 2788   2]                     Reserved : 0000
[AE6h 2790   4]          Processor x2Apic ID : FFFFFFFF
[AEAh 2794   4]        Flags (decoded below) : 00000000
                           Processor Enabled : 0
[AEEh 2798   4]                Processor UID : 00000059
[AF2h 2802   1]                Subtable Type : 09 [Processor Local x2APIC]
[AF3h 2803   1]                       Length : 10
[AF4h 2804   2]                     Reserved : 0000
[AF6h 2806   4]          Processor x2Apic ID : FFFFFFFF
[AFAh 2810   4]        Flags (decoded below) : 00000000
                           Processor Enabled : 0
[AFEh 2814   4]                Processor UID : 0000005A
[B02h 2818   1]                Subtable Type : 09 [Processor Local x2APIC]
[B03h 2819   1]                       Length : 10
[B04h 2820   2]                     Reserved : 0000
[B06h 2822   4]          Processor x2Apic ID : FFFFFFFF
[B0Ah 2826   4]        Flags (decoded below) : 00000000
                           Processor Enabled : 0
[B0Eh 2830   4]                Processor UID : 0000005B
[B12h 2834   1]                Subtable Type : 09 [Processor Local x2APIC]
[B13h 2835   1]                       Length : 10
[B14h 2836   2]                     Reserved : 0000
[B16h 2838   4]          Processor x2Apic ID : FFFFFFFF
[B1Ah 2842   4]        Flags (decoded below) : 00000000
                           Processor Enabled : 0
[B1Eh 2846   4]                Processor UID : 0000005C
[B22h 2850   1]                Subtable Type : 09 [Processor Local x2APIC]
[B23h 2851   1]                       Length : 10
[B24h 2852   2]                     Reserved : 0000
[B26h 2854   4]          Processor x2Apic ID : FFFFFFFF
[B2Ah 2858   4]        Flags (decoded below) : 00000000
                           Processor Enabled : 0
[B2Eh 2862   4]                Processor UID : 0000005D
[B32h 2866   1]                Subtable Type : 09 [Processor Local x2APIC]
[B33h 2867   1]                       Length : 10
[B34h 2868   2]                     Reserved : 0000
[B36h 2870   4]          Processor x2Apic ID : FFFFFFFF
[B3Ah 2874   4]        Flags (decoded below) : 00000000
                           Processor Enabled : 0
[B3Eh 2878   4]                Processor UID : 0000005E
[B42h 2882   1]                Subtable Type : 09 [Processor Local x2APIC]
[B43h 2883   1]                       Length : 10
[B44h 2884   2]                     Reserved : 0000
[B46h 2886   4]          Processor x2Apic ID : FFFFFFFF
[B4Ah 2890   4]        Flags (decoded below) : 00000000
                           Processor Enabled : 0
[B4Eh 2894   4]                Processor UID : 0000005F
[B52h 2898   1]                Subtable Type : 09 [Processor Local x2APIC]
[B53h 2899   1]                       Length : 10
[B54h 2900   2]                     Reserved : 0000
[B56h 2902   4]          Processor x2Apic ID : FFFFFFFF
[B5Ah 2906   4]        Flags (decoded below) : 00000000
                           Processor Enabled : 0
[B5Eh 2910   4]                Processor UID : 00000060
[B62h 2914   1]                Subtable Type : 09 [Processor Local x2APIC]
[B63h 2915   1]                       Length : 10
[B64h 2916   2]                     Reserved : 0000
[B66h 2918   4]          Processor x2Apic ID : FFFFFFFF
[B6Ah 2922   4]        Flags (decoded below) : 00000000
                           Processor Enabled : 0
[B6Eh 2926   4]                Processor UID : 00000061
[B72h 2930   1]                Subtable Type : 09 [Processor Local x2APIC]
[B73h 2931   1]                       Length : 10
[B74h 2932   2]                     Reserved : 0000
[B76h 2934   4]          Processor x2Apic ID : FFFFFFFF
[B7Ah 2938   4]        Flags (decoded below) : 00000000
                           Processor Enabled : 0
[B7Eh 2942   4]                Processor UID : 00000062
[B82h 2946   1]                Subtable Type : 09 [Processor Local x2APIC]
[B83h 2947   1]                       Length : 10
[B84h 2948   2]                     Reserved : 0000
[B86h 2950   4]          Processor x2Apic ID : FFFFFFFF
[B8Ah 2954   4]        Flags (decoded below) : 00000000
                           Processor Enabled : 0
[B8Eh 2958   4]                Processor UID : 00000063
[B92h 2962   1]                Subtable Type : 09 [Processor Local x2APIC]
[B93h 2963   1]                       Length : 10
[B94h 2964   2]                     Reserved : 0000
[B96h 2966   4]          Processor x2Apic ID : FFFFFFFF
[B9Ah 2970   4]        Flags (decoded below) : 00000000
                           Processor Enabled : 0
[B9Eh 2974   4]                Processor UID : 00000064
[BA2h 2978   1]                Subtable Type : 09 [Processor Local x2APIC]
[BA3h 2979   1]                       Length : 10
[BA4h 2980   2]                     Reserved : 0000
[BA6h 2982   4]          Processor x2Apic ID : FFFFFFFF
[BAAh 2986   4]        Flags (decoded below) : 00000000
                           Processor Enabled : 0
[BAEh 2990   4]                Processor UID : 00000065
[BB2h 2994   1]                Subtable Type : 09 [Processor Local x2APIC]
[BB3h 2995   1]                       Length : 10
[BB4h 2996   2]                     Reserved : 0000
[BB6h 2998   4]          Processor x2Apic ID : FFFFFFFF
[BBAh 3002   4]        Flags (decoded below) : 00000000
                           Processor Enabled : 0
[BBEh 3006   4]                Processor UID : 00000066
[BC2h 3010   1]                Subtable Type : 09 [Processor Local x2APIC]
[BC3h 3011   1]                       Length : 10
[BC4h 3012   2]                     Reserved : 0000
[BC6h 3014   4]          Processor x2Apic ID : FFFFFFFF
[BCAh 3018   4]        Flags (decoded below) : 00000000
                           Processor Enabled : 0
[BCEh 3022   4]                Processor UID : 00000067
[BD2h 3026   1]                Subtable Type : 09 [Processor Local x2APIC]
[BD3h 3027   1]                       Length : 10
[BD4h 3028   2]                     Reserved : 0000
[BD6h 3030   4]          Processor x2Apic ID : FFFFFFFF
[BDAh 3034   4]        Flags (decoded below) : 00000000
                           Processor Enabled : 0
[BDEh 3038   4]                Processor UID : 00000068
[BE2h 3042   1]                Subtable Type : 09 [Processor Local x2APIC]
[BE3h 3043   1]                       Length : 10
[BE4h 3044   2]                     Reserved : 0000
[BE6h 3046   4]          Processor x2Apic ID : FFFFFFFF
[BEAh 3050   4]        Flags (decoded below) : 00000000
                           Processor Enabled : 0
[BEEh 3054   4]                Processor UID : 00000069
[BF2h 3058   1]                Subtable Type : 09 [Processor Local x2APIC]
[BF3h 3059   1]                       Length : 10
[BF4h 3060   2]                     Reserved : 0000
[BF6h 3062   4]          Processor x2Apic ID : FFFFFFFF
[BFAh 3066   4]        Flags (decoded below) : 00000000
                           Processor Enabled : 0
[BFEh 3070   4]                Processor UID : 0000006A
[C02h 3074   1]                Subtable Type : 09 [Processor Local x2APIC]
[C03h 3075   1]                       Length : 10
[C04h 3076   2]                     Reserved : 0000
[C06h 3078   4]          Processor x2Apic ID : FFFFFFFF
[C0Ah 3082   4]        Flags (decoded below) : 00000000
                           Processor Enabled : 0
[C0Eh 3086   4]                Processor UID : 0000006B
[C12h 3090   1]                Subtable Type : 09 [Processor Local x2APIC]
[C13h 3091   1]                       Length : 10
[C14h 3092   2]                     Reserved : 0000
[C16h 3094   4]          Processor x2Apic ID : FFFFFFFF
[C1Ah 3098   4]        Flags (decoded below) : 00000000
                           Processor Enabled : 0
[C1Eh 3102   4]                Processor UID : 0000006C
[C22h 3106   1]                Subtable Type : 09 [Processor Local x2APIC]
[C23h 3107   1]                       Length : 10
[C24h 3108   2]                     Reserved : 0000
[C26h 3110   4]          Processor x2Apic ID : FFFFFFFF
[C2Ah 3114   4]        Flags (decoded below) : 00000000
                           Processor Enabled : 0
[C2Eh 3118   4]                Processor UID : 0000006D
[C32h 3122   1]                Subtable Type : 09 [Processor Local x2APIC]
[C33h 3123   1]                       Length : 10
[C34h 3124   2]                     Reserved : 0000
[C36h 3126   4]          Processor x2Apic ID : FFFFFFFF
[C3Ah 3130   4]        Flags (decoded below) : 00000000
                           Processor Enabled : 0
[C3Eh 3134   4]                Processor UID : 0000006E
[C42h 3138   1]                Subtable Type : 09 [Processor Local x2APIC]
[C43h 3139   1]                       Length : 10
[C44h 3140   2]                     Reserved : 0000
[C46h 3142   4]          Processor x2Apic ID : FFFFFFFF
[C4Ah 3146   4]        Flags (decoded below) : 00000000
                           Processor Enabled : 0
[C4Eh 3150   4]                Processor UID : 0000006F
[C52h 3154   1]                Subtable Type : 0A [Local x2APIC NMI]
[C53h 3155   1]                       Length : 0C
[C54h 3156   2]        Flags (decoded below) : 000D
                                    Polarity : 1
                                Trigger Mode : 3
[C56h 3158   4]                Processor UID : FFFFFFFF
[C5Ah 3162   1]         Interrupt Input LINT : 01
[C5Bh 3163   3]                     Reserved : 000000

MIGT @ 6cb196d0 (64 bytes)
----
[000h 0000   4]                    Signature : "MIGT"    
[004h 0004   4]                 Table Length : 00000040
[008h 0008   1]                     Revision : 01
[009h 0009   1]                     Checksum : 16
[00Ah 0010   6]                       Oem ID : "REDACTED0"
[010h 0016   8]                 Oem Table ID : "REDACTEDFOO"
[018h 0024   4]                 Oem Revision : 00000000
[01Ch 0028   4]              Asl Compiler ID : "INTL"
[020h 0032   4]        Asl Compiler Revision : 20091013

  0000: 4d 49 47 54 40 00 00 00 01 16 43 69 73 63 6f 30  MIGT@.....REDACTED0
  0010: 43 69 73 63 6f 55 43 53 00 00 00 00 49 4e 54 4c  REDACTEDFOO....INTL
  0020: 13 10 09 20 01 08 00 00 b2 00 00 00 00 00 00 00  ... ............
  0030: fd 00 00 00 00 40 00 00 00 00 00 00 00 00 00 00  .....@..........

MSCT @ 6cb19710 (100 bytes)
----
[000h 0000   4]                    Signature : "MSCT"    [Maximum System Characteristics Table]
[004h 0004   4]                 Table Length : 00000064
[008h 0008   1]                     Revision : 01
[009h 0009   1]                     Checksum : CF
[00Ah 0010   6]                       Oem ID : "REDACTED0"
[010h 0016   8]                 Oem Table ID : "REDACTEDFOO"
[018h 0024   4]                 Oem Revision : 00000001
[01Ch 0028   4]              Asl Compiler ID : "INTL"
[020h 0032   4]        Asl Compiler Revision : 20091013
[024h 0036   4]             Proximity Offset : 00000038
[028h 0040   4]        Max Proximity Domains : 00000001
[02Ch 0044   4]            Max Clock Domains : 00000000
[030h 0048   8]         Max Physical Address : 00003FFFFFFFFFFF
[038h 0056   1]                     Revision : 01
[039h 0057   1]                       Length : 16
[03Ah 0058   4]           Domain Range Start : 00000000
[03Eh 0062   4]             Domain Range End : 00000001
[042h 0066   4]           Processor Capacity : 00000038
[046h 0070   8]              Memory Capacity : 00003FFFFFFFFFFF
[04Eh 0078   1]                     Revision : 01
[04Fh 0079   1]                       Length : 16
[050h 0080   4]           Domain Range Start : 00000000
[054h 0084   4]             Domain Range End : 00000000
[058h 0088   4]           Processor Capacity : 00000000
[05Ch 0092   8]              Memory Capacity : 0000000000000000

NFIT @ 6cb19778 (98344 bytes)
----
[000h 0000   4]                    Signature : "NFIT"    [NVDIMM Firmware Interface Table]
[004h 0004   4]                 Table Length : 00018028
[008h 0008   1]                     Revision : 01
[009h 0009   1]                     Checksum : 65
[00Ah 0010   6]                       Oem ID : "      "
[010h 0016   8]                 Oem Table ID : ""
[018h 0024   4]                 Oem Revision : 00000000
[01Ch 0028   4]              Asl Compiler ID : ""
[020h 0032   4]        Asl Compiler Revision : 00000000
[024h 0036   4]                     Reserved : 00000000
[028h 0040   2]                Subtable Type : 0000 [System Physical Address Range]
[02Ah 0042   2]                       Length : 0000
Invalid zero length subtable

PCAT @ 6cb317a0 (72 bytes)
----
[000h 0000   4]                    Signature : "PCAT"    
[004h 0004   4]                 Table Length : 00000048
[008h 0008   1]                     Revision : 01
[009h 0009   1]                     Checksum : 6E
[00Ah 0010   6]                       Oem ID : "REDACTED0"
[010h 0016   8]                 Oem Table ID : "REDACTEDFOO"
[018h 0024   4]                 Oem Revision : 00000002
[01Ch 0028   4]              Asl Compiler ID : "INTL"
[020h 0032   4]        Asl Compiler Revision : 20091013

  0000: 50 43 41 54 48 00 00 00 01 6e 43 69 73 63 6f 30  PCATH....nREDACTED0
  0010: 43 69 73 63 6f 55 43 53 02 00 00 00 49 4e 54 4c  REDACTEDFOO....INTL
  0020: 13 10 09 20 00 00 00 00 00 00 10 00 01 37 04 01  ... .........7..
  0030: 00 00 00 00 00 00 00 00 01 00 10 00 03 00 00 00  ................
  0040: 1e 00 01 00 40 40 1f 80                          ....@@..

PCCT @ 6cb317e8 (110 bytes)
----
[000h 0000   4]                    Signature : "PCCT"    [Platform Communications Channel Table]
[004h 0004   4]                 Table Length : 0000006E
[008h 0008   1]                     Revision : 01
[009h 0009   1]                     Checksum : 0D
[00Ah 0010   6]                       Oem ID : "REDACTED0"
[010h 0016   8]                 Oem Table ID : "REDACTEDFOO"
[018h 0024   4]                 Oem Revision : 00000002
[01Ch 0028   4]              Asl Compiler ID : "INTL"
[020h 0032   4]        Asl Compiler Revision : 20091013
[024h 0036   4]        Flags (decoded below) : 00000001
                                    Platform : 1
[028h 0040   8]                     Reserved : 0000000000000000
[030h 0048   1]                Subtable Type : 00 [Generic Communications Subspace]
[031h 0049   1]                       Length : 3E
[032h 0050   6]                     Reserved : 000000000000
[038h 0056   8]                 Base Address : 000000006D231018
[040h 0064   8]               Address Length : 0000000000001018
[048h 0072  12]            Doorbell Register : [Generic Address Structure]
[048h 0072   1]                     Space ID : 01 [SystemIO]
[049h 0073   1]                    Bit Width : 08
[04Ah 0074   1]                   Bit Offset : 00
[04Bh 0075   1]         Encoded Access Width : 01 [Byte Access:8]
[04Ch 0076   8]                      Address : 00000000000000B2
[054h 0084   8]                Preserve Mask : 0000000000000000
[05Ch 0092   8]                   Write Mask : 00000000000000FD
[064h 0100   4]              Command Latency : 00000000
[068h 0104   4]          Maximum Access Rate : 00000000
[06Ch 0108   2]      Minimum Turnaround Time : 0000

RASF @ 6cb31858 (48 bytes)
----
[000h 0000   4]                    Signature : "RASF"    [RAS Features Table]
[004h 0004   4]                 Table Length : 00000030
[008h 0008   1]                     Revision : 01
[009h 0009   1]                     Checksum : 21
[00Ah 0010   6]                       Oem ID : "REDACTED0"
[010h 0016   8]                 Oem Table ID : "REDACTEDFOO"
[018h 0024   4]                 Oem Revision : 00000001
[01Ch 0028   4]              Asl Compiler ID : "INTL"
[020h 0032   4]        Asl Compiler Revision : 20091013
[024h 0036  12]                   Channel ID : 01 00 00 00 00 00 00 00 00 00 00 00

SLIT @ 6cb31888 (48 bytes)
----
[000h 0000   4]                    Signature : "SLIT"    [System Locality Information Table]
[004h 0004   4]                 Table Length : 00000030
[008h 0008   1]                     Revision : 01
[009h 0009   1]                     Checksum : D2
[00Ah 0010   6]                       Oem ID : "REDACTED0"
[010h 0016   8]                 Oem Table ID : "REDACTEDFOO"
[018h 0024   4]                 Oem Revision : 00000001
[01Ch 0028   4]              Asl Compiler ID : "INTL"
[020h 0032   4]        Asl Compiler Revision : 20091013
[024h 0036   8]                   Localities : 0000000000000002
[02Ch 0044   2]                 Locality   0 : 0A 15
[02Eh 0046   2]                 Locality   1 : 15 0A

SRAT @ 6cb318b8 (5168 bytes)
----
[000h 0000   4]                    Signature : "SRAT"    [System Resource Affinity Table]
[004h 0004   4]                 Table Length : 00001430
[008h 0008   1]                     Revision : 03
[009h 0009   1]                     Checksum : 20
[00Ah 0010   6]                       Oem ID : "REDACTED0"
[010h 0016   8]                 Oem Table ID : "REDACTEDFOO"
[018h 0024   4]                 Oem Revision : 00000002
[01Ch 0028   4]              Asl Compiler ID : "INTL"
[020h 0032   4]        Asl Compiler Revision : 20091013
[024h 0036   4]               Table Revision : 00000001
[028h 0040   8]                     Reserved : 0000000000000000
[030h 0048   1]                Subtable Type : 00 [Processor Local APIC/SAPIC Affinity]
[031h 0049   1]                       Length : 10
[032h 0050   1]      Proximity Domain Low(8) : 00
[033h 0051   1]                      Apic ID : 00
[034h 0052   4]        Flags (decoded below) : 00000001
                                     Enabled : 1
[038h 0056   1]              Local Sapic EID : 00
[039h 0057   3]    Proximity Domain High(24) : 000000
[03Ch 0060   4]                 Clock Domain : 00000000
[040h 0064   1]                Subtable Type : 00 [Processor Local APIC/SAPIC Affinity]
[041h 0065   1]                       Length : 10
[042h 0066   1]      Proximity Domain Low(8) : 00
[043h 0067   1]                      Apic ID : 02
[044h 0068   4]        Flags (decoded below) : 00000001
                                     Enabled : 1
[048h 0072   1]              Local Sapic EID : 00
[049h 0073   3]    Proximity Domain High(24) : 000000
[04Ch 0076   4]                 Clock Domain : 00000000
[050h 0080   1]                Subtable Type : 00 [Processor Local APIC/SAPIC Affinity]
[051h 0081   1]                       Length : 10
[052h 0082   1]      Proximity Domain Low(8) : 00
[053h 0083   1]                      Apic ID : 04
[054h 0084   4]        Flags (decoded below) : 00000001
                                     Enabled : 1
[058h 0088   1]              Local Sapic EID : 00
[059h 0089   3]    Proximity Domain High(24) : 000000
[05Ch 0092   4]                 Clock Domain : 00000000
[060h 0096   1]                Subtable Type : 00 [Processor Local APIC/SAPIC Affinity]
[061h 0097   1]                       Length : 10
[062h 0098   1]      Proximity Domain Low(8) : 00
[063h 0099   1]                      Apic ID : 06
[064h 0100   4]        Flags (decoded below) : 00000001
                                     Enabled : 1
[068h 0104   1]              Local Sapic EID : 00
[069h 0105   3]    Proximity Domain High(24) : 000000
[06Ch 0108   4]                 Clock Domain : 00000000
[070h 0112   1]                Subtable Type : 00 [Processor Local APIC/SAPIC Affinity]
[071h 0113   1]                       Length : 10
[072h 0114   1]      Proximity Domain Low(8) : 00
[073h 0115   1]                      Apic ID : 08
[074h 0116   4]        Flags (decoded below) : 00000001
                                     Enabled : 1
[078h 0120   1]              Local Sapic EID : 00
[079h 0121   3]    Proximity Domain High(24) : 000000
[07Ch 0124   4]                 Clock Domain : 00000000
[080h 0128   1]                Subtable Type : 00 [Processor Local APIC/SAPIC Affinity]
[081h 0129   1]                       Length : 10
[082h 0130   1]      Proximity Domain Low(8) : 00
[083h 0131   1]                      Apic ID : 0A
[084h 0132   4]        Flags (decoded below) : 00000001
                                     Enabled : 1
[088h 0136   1]              Local Sapic EID : 00
[089h 0137   3]    Proximity Domain High(24) : 000000
[08Ch 0140   4]                 Clock Domain : 00000000
[090h 0144   1]                Subtable Type : 00 [Processor Local APIC/SAPIC Affinity]
[091h 0145   1]                       Length : 10
[092h 0146   1]      Proximity Domain Low(8) : 00
[093h 0147   1]                      Apic ID : 0C
[094h 0148   4]        Flags (decoded below) : 00000001
                                     Enabled : 1
[098h 0152   1]              Local Sapic EID : 00
[099h 0153   3]    Proximity Domain High(24) : 000000
[09Ch 0156   4]                 Clock Domain : 00000000
[0A0h 0160   1]                Subtable Type : 00 [Processor Local APIC/SAPIC Affinity]
[0A1h 0161   1]                       Length : 10
[0A2h 0162   1]      Proximity Domain Low(8) : 00
[0A3h 0163   1]                      Apic ID : 10
[0A4h 0164   4]        Flags (decoded below) : 00000001
                                     Enabled : 1
[0A8h 0168   1]              Local Sapic EID : 00
[0A9h 0169   3]    Proximity Domain High(24) : 000000
[0ACh 0172   4]                 Clock Domain : 00000000
[0B0h 0176   1]                Subtable Type : 00 [Processor Local APIC/SAPIC Affinity]
[0B1h 0177   1]                       Length : 10
[0B2h 0178   1]      Proximity Domain Low(8) : 00
[0B3h 0179   1]                      Apic ID : 12
[0B4h 0180   4]        Flags (decoded below) : 00000001
                                     Enabled : 1
[0B8h 0184   1]              Local Sapic EID : 00
[0B9h 0185   3]    Proximity Domain High(24) : 000000
[0BCh 0188   4]                 Clock Domain : 00000000
[0C0h 0192   1]                Subtable Type : 00 [Processor Local APIC/SAPIC Affinity]
[0C1h 0193   1]                       Length : 10
[0C2h 0194   1]      Proximity Domain Low(8) : 00
[0C3h 0195   1]                      Apic ID : 14
[0C4h 0196   4]        Flags (decoded below) : 00000001
                                     Enabled : 1
[0C8h 0200   1]              Local Sapic EID : 00
[0C9h 0201   3]    Proximity Domain High(24) : 000000
[0CCh 0204   4]                 Clock Domain : 00000000
[0D0h 0208   1]                Subtable Type : 00 [Processor Local APIC/SAPIC Affinity]
[0D1h 0209   1]                       Length : 10
[0D2h 0210   1]      Proximity Domain Low(8) : 00
[0D3h 0211   1]                      Apic ID : 16
[0D4h 0212   4]        Flags (decoded below) : 00000001
                                     Enabled : 1
[0D8h 0216   1]              Local Sapic EID : 00
[0D9h 0217   3]    Proximity Domain High(24) : 000000
[0DCh 0220   4]                 Clock Domain : 00000000
[0E0h 0224   1]                Subtable Type : 00 [Processor Local APIC/SAPIC Affinity]
[0E1h 0225   1]                       Length : 10
[0E2h 0226   1]      Proximity Domain Low(8) : 00
[0E3h 0227   1]                      Apic ID : 18
[0E4h 0228   4]        Flags (decoded below) : 00000001
                                     Enabled : 1
[0E8h 0232   1]              Local Sapic EID : 00
[0E9h 0233   3]    Proximity Domain High(24) : 000000
[0ECh 0236   4]                 Clock Domain : 00000000
[0F0h 0240   1]                Subtable Type : 00 [Processor Local APIC/SAPIC Affinity]
[0F1h 0241   1]                       Length : 10
[0F2h 0242   1]      Proximity Domain Low(8) : 00
[0F3h 0243   1]                      Apic ID : 1A
[0F4h 0244   4]        Flags (decoded below) : 00000001
                                     Enabled : 1
[0F8h 0248   1]              Local Sapic EID : 00
[0F9h 0249   3]    Proximity Domain High(24) : 000000
[0FCh 0252   4]                 Clock Domain : 00000000
[100h 0256   1]                Subtable Type : 00 [Processor Local APIC/SAPIC Affinity]
[101h 0257   1]                       Length : 10
[102h 0258   1]      Proximity Domain Low(8) : 00
[103h 0259   1]                      Apic ID : 1C
[104h 0260   4]        Flags (decoded below) : 00000001
                                     Enabled : 1
[108h 0264   1]              Local Sapic EID : 00
[109h 0265   3]    Proximity Domain High(24) : 000000
[10Ch 0268   4]                 Clock Domain : 00000000
[110h 0272   1]                Subtable Type : 00 [Processor Local APIC/SAPIC Affinity]
[111h 0273   1]                       Length : 10
[112h 0274   1]      Proximity Domain Low(8) : 01
[113h 0275   1]                      Apic ID : 20
[114h 0276   4]        Flags (decoded below) : 00000001
                                     Enabled : 1
[118h 0280   1]              Local Sapic EID : 00
[119h 0281   3]    Proximity Domain High(24) : 000000
[11Ch 0284   4]                 Clock Domain : 00000000
[120h 0288   1]                Subtable Type : 00 [Processor Local APIC/SAPIC Affinity]
[121h 0289   1]                       Length : 10
[122h 0290   1]      Proximity Domain Low(8) : 01
[123h 0291   1]                      Apic ID : 22
[124h 0292   4]        Flags (decoded below) : 00000001
                                     Enabled : 1
[128h 0296   1]              Local Sapic EID : 00
[129h 0297   3]    Proximity Domain High(24) : 000000
[12Ch 0300   4]                 Clock Domain : 00000000
[130h 0304   1]                Subtable Type : 00 [Processor Local APIC/SAPIC Affinity]
[131h 0305   1]                       Length : 10
[132h 0306   1]      Proximity Domain Low(8) : 01
[133h 0307   1]                      Apic ID : 24
[134h 0308   4]        Flags (decoded below) : 00000001
                                     Enabled : 1
[138h 0312   1]              Local Sapic EID : 00
[139h 0313   3]    Proximity Domain High(24) : 000000
[13Ch 0316   4]                 Clock Domain : 00000000
[140h 0320   1]                Subtable Type : 00 [Processor Local APIC/SAPIC Affinity]
[141h 0321   1]                       Length : 10
[142h 0322   1]      Proximity Domain Low(8) : 01
[143h 0323   1]                      Apic ID : 26
[144h 0324   4]        Flags (decoded below) : 00000001
                                     Enabled : 1
[148h 0328   1]              Local Sapic EID : 00
[149h 0329   3]    Proximity Domain High(24) : 000000
[14Ch 0332   4]                 Clock Domain : 00000000
[150h 0336   1]                Subtable Type : 00 [Processor Local APIC/SAPIC Affinity]
[151h 0337   1]                       Length : 10
[152h 0338   1]      Proximity Domain Low(8) : 01
[153h 0339   1]                      Apic ID : 28
[154h 0340   4]        Flags (decoded below) : 00000001
                                     Enabled : 1
[158h 0344   1]              Local Sapic EID : 00
[159h 0345   3]    Proximity Domain High(24) : 000000
[15Ch 0348   4]                 Clock Domain : 00000000
[160h 0352   1]                Subtable Type : 00 [Processor Local APIC/SAPIC Affinity]
[161h 0353   1]                       Length : 10
[162h 0354   1]      Proximity Domain Low(8) : 01
[163h 0355   1]                      Apic ID : 2A
[164h 0356   4]        Flags (decoded below) : 00000001
                                     Enabled : 1
[168h 0360   1]              Local Sapic EID : 00
[169h 0361   3]    Proximity Domain High(24) : 000000
[16Ch 0364   4]                 Clock Domain : 00000000
[170h 0368   1]                Subtable Type : 00 [Processor Local APIC/SAPIC Affinity]
[171h 0369   1]                       Length : 10
[172h 0370   1]      Proximity Domain Low(8) : 01
[173h 0371   1]                      Apic ID : 2C
[174h 0372   4]        Flags (decoded below) : 00000001
                                     Enabled : 1
[178h 0376   1]              Local Sapic EID : 00
[179h 0377   3]    Proximity Domain High(24) : 000000
[17Ch 0380   4]                 Clock Domain : 00000000
[180h 0384   1]                Subtable Type : 00 [Processor Local APIC/SAPIC Affinity]
[181h 0385   1]                       Length : 10
[182h 0386   1]      Proximity Domain Low(8) : 01
[183h 0387   1]                      Apic ID : 30
[184h 0388   4]        Flags (decoded below) : 00000001
                                     Enabled : 1
[188h 0392   1]              Local Sapic EID : 00
[189h 0393   3]    Proximity Domain High(24) : 000000
[18Ch 0396   4]                 Clock Domain : 00000000
[190h 0400   1]                Subtable Type : 00 [Processor Local APIC/SAPIC Affinity]
[191h 0401   1]                       Length : 10
[192h 0402   1]      Proximity Domain Low(8) : 01
[193h 0403   1]                      Apic ID : 32
[194h 0404   4]        Flags (decoded below) : 00000001
                                     Enabled : 1
[198h 0408   1]              Local Sapic EID : 00
[199h 0409   3]    Proximity Domain High(24) : 000000
[19Ch 0412   4]                 Clock Domain : 00000000
[1A0h 0416   1]                Subtable Type : 00 [Processor Local APIC/SAPIC Affinity]
[1A1h 0417   1]                       Length : 10
[1A2h 0418   1]      Proximity Domain Low(8) : 01
[1A3h 0419   1]                      Apic ID : 34
[1A4h 0420   4]        Flags (decoded below) : 00000001
                                     Enabled : 1
[1A8h 0424   1]              Local Sapic EID : 00
[1A9h 0425   3]    Proximity Domain High(24) : 000000
[1ACh 0428   4]                 Clock Domain : 00000000
[1B0h 0432   1]                Subtable Type : 00 [Processor Local APIC/SAPIC Affinity]
[1B1h 0433   1]                       Length : 10
[1B2h 0434   1]      Proximity Domain Low(8) : 01
[1B3h 0435   1]                      Apic ID : 36
[1B4h 0436   4]        Flags (decoded below) : 00000001
                                     Enabled : 1
[1B8h 0440   1]              Local Sapic EID : 00
[1B9h 0441   3]    Proximity Domain High(24) : 000000
[1BCh 0444   4]                 Clock Domain : 00000000
[1C0h 0448   1]                Subtable Type : 00 [Processor Local APIC/SAPIC Affinity]
[1C1h 0449   1]                       Length : 10
[1C2h 0450   1]      Proximity Domain Low(8) : 01
[1C3h 0451   1]                      Apic ID : 38
[1C4h 0452   4]        Flags (decoded below) : 00000001
                                     Enabled : 1
[1C8h 0456   1]              Local Sapic EID : 00
[1C9h 0457   3]    Proximity Domain High(24) : 000000
[1CCh 0460   4]                 Clock Domain : 00000000
[1D0h 0464   1]                Subtable Type : 00 [Processor Local APIC/SAPIC Affinity]
[1D1h 0465   1]                       Length : 10
[1D2h 0466   1]      Proximity Domain Low(8) : 01
[1D3h 0467   1]                      Apic ID : 3A
[1D4h 0468   4]        Flags (decoded below) : 00000001
                                     Enabled : 1
[1D8h 0472   1]              Local Sapic EID : 00
[1D9h 0473   3]    Proximity Domain High(24) : 000000
[1DCh 0476   4]                 Clock Domain : 00000000
[1E0h 0480   1]                Subtable Type : 00 [Processor Local APIC/SAPIC Affinity]
[1E1h 0481   1]                       Length : 10
[1E2h 0482   1]      Proximity Domain Low(8) : 01
[1E3h 0483   1]                      Apic ID : 3C
[1E4h 0484   4]        Flags (decoded below) : 00000001
                                     Enabled : 1
[1E8h 0488   1]              Local Sapic EID : 00
[1E9h 0489   3]    Proximity Domain High(24) : 000000
[1ECh 0492   4]                 Clock Domain : 00000000
[1F0h 0496   1]                Subtable Type : 00 [Processor Local APIC/SAPIC Affinity]
[1F1h 0497   1]                       Length : 10
[1F2h 0498   1]      Proximity Domain Low(8) : 00
[1F3h 0499   1]                      Apic ID : 01
[1F4h 0500   4]        Flags (decoded below) : 00000001
                                     Enabled : 1
[1F8h 0504   1]              Local Sapic EID : 00
[1F9h 0505   3]    Proximity Domain High(24) : 000000
[1FCh 0508   4]                 Clock Domain : 00000000
[200h 0512   1]                Subtable Type : 00 [Processor Local APIC/SAPIC Affinity]
[201h 0513   1]                       Length : 10
[202h 0514   1]      Proximity Domain Low(8) : 00
[203h 0515   1]                      Apic ID : 03
[204h 0516   4]        Flags (decoded below) : 00000001
                                     Enabled : 1
[208h 0520   1]              Local Sapic EID : 00
[209h 0521   3]    Proximity Domain High(24) : 000000
[20Ch 0524   4]                 Clock Domain : 00000000
[210h 0528   1]                Subtable Type : 00 [Processor Local APIC/SAPIC Affinity]
[211h 0529   1]                       Length : 10
[212h 0530   1]      Proximity Domain Low(8) : 00
[213h 0531   1]                      Apic ID : 05
[214h 0532   4]        Flags (decoded below) : 00000001
                                     Enabled : 1
[218h 0536   1]              Local Sapic EID : 00
[219h 0537   3]    Proximity Domain High(24) : 000000
[21Ch 0540   4]                 Clock Domain : 00000000
[220h 0544   1]                Subtable Type : 00 [Processor Local APIC/SAPIC Affinity]
[221h 0545   1]                       Length : 10
[222h 0546   1]      Proximity Domain Low(8) : 00
[223h 0547   1]                      Apic ID : 07
[224h 0548   4]        Flags (decoded below) : 00000001
                                     Enabled : 1
[228h 0552   1]              Local Sapic EID : 00
[229h 0553   3]    Proximity Domain High(24) : 000000
[22Ch 0556   4]                 Clock Domain : 00000000
[230h 0560   1]                Subtable Type : 00 [Processor Local APIC/SAPIC Affinity]
[231h 0561   1]                       Length : 10
[232h 0562   1]      Proximity Domain Low(8) : 00
[233h 0563   1]                      Apic ID : 09
[234h 0564   4]        Flags (decoded below) : 00000001
                                     Enabled : 1
[238h 0568   1]              Local Sapic EID : 00
[239h 0569   3]    Proximity Domain High(24) : 000000
[23Ch 0572   4]                 Clock Domain : 00000000
[240h 0576   1]                Subtable Type : 00 [Processor Local APIC/SAPIC Affinity]
[241h 0577   1]                       Length : 10
[242h 0578   1]      Proximity Domain Low(8) : 00
[243h 0579   1]                      Apic ID : 0B
[244h 0580   4]        Flags (decoded below) : 00000001
                                     Enabled : 1
[248h 0584   1]              Local Sapic EID : 00
[249h 0585   3]    Proximity Domain High(24) : 000000
[24Ch 0588   4]                 Clock Domain : 00000000
[250h 0592   1]                Subtable Type : 00 [Processor Local APIC/SAPIC Affinity]
[251h 0593   1]                       Length : 10
[252h 0594   1]      Proximity Domain Low(8) : 00
[253h 0595   1]                      Apic ID : 0D
[254h 0596   4]        Flags (decoded below) : 00000001
                                     Enabled : 1
[258h 0600   1]              Local Sapic EID : 00
[259h 0601   3]    Proximity Domain High(24) : 000000
[25Ch 0604   4]                 Clock Domain : 00000000
[260h 0608   1]                Subtable Type : 00 [Processor Local APIC/SAPIC Affinity]
[261h 0609   1]                       Length : 10
[262h 0610   1]      Proximity Domain Low(8) : 00
[263h 0611   1]                      Apic ID : 11
[264h 0612   4]        Flags (decoded below) : 00000001
                                     Enabled : 1
[268h 0616   1]              Local Sapic EID : 00
[269h 0617   3]    Proximity Domain High(24) : 000000
[26Ch 0620   4]                 Clock Domain : 00000000
[270h 0624   1]                Subtable Type : 00 [Processor Local APIC/SAPIC Affinity]
[271h 0625   1]                       Length : 10
[272h 0626   1]      Proximity Domain Low(8) : 00
[273h 0627   1]                      Apic ID : 13
[274h 0628   4]        Flags (decoded below) : 00000001
                                     Enabled : 1
[278h 0632   1]              Local Sapic EID : 00
[279h 0633   3]    Proximity Domain High(24) : 000000
[27Ch 0636   4]                 Clock Domain : 00000000
[280h 0640   1]                Subtable Type : 00 [Processor Local APIC/SAPIC Affinity]
[281h 0641   1]                       Length : 10
[282h 0642   1]      Proximity Domain Low(8) : 00
[283h 0643   1]                      Apic ID : 15
[284h 0644   4]        Flags (decoded below) : 00000001
                                     Enabled : 1
[288h 0648   1]              Local Sapic EID : 00
[289h 0649   3]    Proximity Domain High(24) : 000000
[28Ch 0652   4]                 Clock Domain : 00000000
[290h 0656   1]                Subtable Type : 00 [Processor Local APIC/SAPIC Affinity]
[291h 0657   1]                       Length : 10
[292h 0658   1]      Proximity Domain Low(8) : 00
[293h 0659   1]                      Apic ID : 17
[294h 0660   4]        Flags (decoded below) : 00000001
                                     Enabled : 1
[298h 0664   1]              Local Sapic EID : 00
[299h 0665   3]    Proximity Domain High(24) : 000000
[29Ch 0668   4]                 Clock Domain : 00000000
[2A0h 0672   1]                Subtable Type : 00 [Processor Local APIC/SAPIC Affinity]
[2A1h 0673   1]                       Length : 10
[2A2h 0674   1]      Proximity Domain Low(8) : 00
[2A3h 0675   1]                      Apic ID : 19
[2A4h 0676   4]        Flags (decoded below) : 00000001
                                     Enabled : 1
[2A8h 0680   1]              Local Sapic EID : 00
[2A9h 0681   3]    Proximity Domain High(24) : 000000
[2ACh 0684   4]                 Clock Domain : 00000000
[2B0h 0688   1]                Subtable Type : 00 [Processor Local APIC/SAPIC Affinity]
[2B1h 0689   1]                       Length : 10
[2B2h 0690   1]      Proximity Domain Low(8) : 00
[2B3h 0691   1]                      Apic ID : 1B
[2B4h 0692   4]        Flags (decoded below) : 00000001
                                     Enabled : 1
[2B8h 0696   1]              Local Sapic EID : 00
[2B9h 0697   3]    Proximity Domain High(24) : 000000
[2BCh 0700   4]                 Clock Domain : 00000000
[2C0h 0704   1]                Subtable Type : 00 [Processor Local APIC/SAPIC Affinity]
[2C1h 0705   1]                       Length : 10
[2C2h 0706   1]      Proximity Domain Low(8) : 00
[2C3h 0707   1]                      Apic ID : 1D
[2C4h 0708   4]        Flags (decoded below) : 00000001
                                     Enabled : 1
[2C8h 0712   1]              Local Sapic EID : 00
[2C9h 0713   3]    Proximity Domain High(24) : 000000
[2CCh 0716   4]                 Clock Domain : 00000000
[2D0h 0720   1]                Subtable Type : 00 [Processor Local APIC/SAPIC Affinity]
[2D1h 0721   1]                       Length : 10
[2D2h 0722   1]      Proximity Domain Low(8) : 01
[2D3h 0723   1]                      Apic ID : 21
[2D4h 0724   4]        Flags (decoded below) : 00000001
                                     Enabled : 1
[2D8h 0728   1]              Local Sapic EID : 00
[2D9h 0729   3]    Proximity Domain High(24) : 000000
[2DCh 0732   4]                 Clock Domain : 00000000
[2E0h 0736   1]                Subtable Type : 00 [Processor Local APIC/SAPIC Affinity]
[2E1h 0737   1]                       Length : 10
[2E2h 0738   1]      Proximity Domain Low(8) : 01
[2E3h 0739   1]                      Apic ID : 23
[2E4h 0740   4]        Flags (decoded below) : 00000001
                                     Enabled : 1
[2E8h 0744   1]              Local Sapic EID : 00
[2E9h 0745   3]    Proximity Domain High(24) : 000000
[2ECh 0748   4]                 Clock Domain : 00000000
[2F0h 0752   1]                Subtable Type : 00 [Processor Local APIC/SAPIC Affinity]
[2F1h 0753   1]                       Length : 10
[2F2h 0754   1]      Proximity Domain Low(8) : 01
[2F3h 0755   1]                      Apic ID : 25
[2F4h 0756   4]        Flags (decoded below) : 00000001
                                     Enabled : 1
[2F8h 0760   1]              Local Sapic EID : 00
[2F9h 0761   3]    Proximity Domain High(24) : 000000
[2FCh 0764   4]                 Clock Domain : 00000000
[300h 0768   1]                Subtable Type : 00 [Processor Local APIC/SAPIC Affinity]
[301h 0769   1]                       Length : 10
[302h 0770   1]      Proximity Domain Low(8) : 01
[303h 0771   1]                      Apic ID : 27
[304h 0772   4]        Flags (decoded below) : 00000001
                                     Enabled : 1
[308h 0776   1]              Local Sapic EID : 00
[309h 0777   3]    Proximity Domain High(24) : 000000
[30Ch 0780   4]                 Clock Domain : 00000000
[310h 0784   1]                Subtable Type : 00 [Processor Local APIC/SAPIC Affinity]
[311h 0785   1]                       Length : 10
[312h 0786   1]      Proximity Domain Low(8) : 01
[313h 0787   1]                      Apic ID : 29
[314h 0788   4]        Flags (decoded below) : 00000001
                                     Enabled : 1
[318h 0792   1]              Local Sapic EID : 00
[319h 0793   3]    Proximity Domain High(24) : 000000
[31Ch 0796   4]                 Clock Domain : 00000000
[320h 0800   1]                Subtable Type : 00 [Processor Local APIC/SAPIC Affinity]
[321h 0801   1]                       Length : 10
[322h 0802   1]      Proximity Domain Low(8) : 01
[323h 0803   1]                      Apic ID : 2B
[324h 0804   4]        Flags (decoded below) : 00000001
                                     Enabled : 1
[328h 0808   1]              Local Sapic EID : 00
[329h 0809   3]    Proximity Domain High(24) : 000000
[32Ch 0812   4]                 Clock Domain : 00000000
[330h 0816   1]                Subtable Type : 00 [Processor Local APIC/SAPIC Affinity]
[331h 0817   1]                       Length : 10
[332h 0818   1]      Proximity Domain Low(8) : 01
[333h 0819   1]                      Apic ID : 2D
[334h 0820   4]        Flags (decoded below) : 00000001
                                     Enabled : 1
[338h 0824   1]              Local Sapic EID : 00
[339h 0825   3]    Proximity Domain High(24) : 000000
[33Ch 0828   4]                 Clock Domain : 00000000
[340h 0832   1]                Subtable Type : 00 [Processor Local APIC/SAPIC Affinity]
[341h 0833   1]                       Length : 10
[342h 0834   1]      Proximity Domain Low(8) : 01
[343h 0835   1]                      Apic ID : 31
[344h 0836   4]        Flags (decoded below) : 00000001
                                     Enabled : 1
[348h 0840   1]              Local Sapic EID : 00
[349h 0841   3]    Proximity Domain High(24) : 000000
[34Ch 0844   4]                 Clock Domain : 00000000
[350h 0848   1]                Subtable Type : 00 [Processor Local APIC/SAPIC Affinity]
[351h 0849   1]                       Length : 10
[352h 0850   1]      Proximity Domain Low(8) : 01
[353h 0851   1]                      Apic ID : 33
[354h 0852   4]        Flags (decoded below) : 00000001
                                     Enabled : 1
[358h 0856   1]              Local Sapic EID : 00
[359h 0857   3]    Proximity Domain High(24) : 000000
[35Ch 0860   4]                 Clock Domain : 00000000
[360h 0864   1]                Subtable Type : 00 [Processor Local APIC/SAPIC Affinity]
[361h 0865   1]                       Length : 10
[362h 0866   1]      Proximity Domain Low(8) : 01
[363h 0867   1]                      Apic ID : 35
[364h 0868   4]        Flags (decoded below) : 00000001
                                     Enabled : 1
[368h 0872   1]              Local Sapic EID : 00
[369h 0873   3]    Proximity Domain High(24) : 000000
[36Ch 0876   4]                 Clock Domain : 00000000
[370h 0880   1]                Subtable Type : 00 [Processor Local APIC/SAPIC Affinity]
[371h 0881   1]                       Length : 10
[372h 0882   1]      Proximity Domain Low(8) : 01
[373h 0883   1]                      Apic ID : 37
[374h 0884   4]        Flags (decoded below) : 00000001
                                     Enabled : 1
[378h 0888   1]              Local Sapic EID : 00
[379h 0889   3]    Proximity Domain High(24) : 000000
[37Ch 0892   4]                 Clock Domain : 00000000
[380h 0896   1]                Subtable Type : 00 [Processor Local APIC/SAPIC Affinity]
[381h 0897   1]                       Length : 10
[382h 0898   1]      Proximity Domain Low(8) : 01
[383h 0899   1]                      Apic ID : 39
[384h 0900   4]        Flags (decoded below) : 00000001
                                     Enabled : 1
[388h 0904   1]              Local Sapic EID : 00
[389h 0905   3]    Proximity Domain High(24) : 000000
[38Ch 0908   4]                 Clock Domain : 00000000
[390h 0912   1]                Subtable Type : 00 [Processor Local APIC/SAPIC Affinity]
[391h 0913   1]                       Length : 10
[392h 0914   1]      Proximity Domain Low(8) : 01
[393h 0915   1]                      Apic ID : 3B
[394h 0916   4]        Flags (decoded below) : 00000001
                                     Enabled : 1
[398h 0920   1]              Local Sapic EID : 00
[399h 0921   3]    Proximity Domain High(24) : 000000
[39Ch 0924   4]                 Clock Domain : 00000000
[3A0h 0928   1]                Subtable Type : 00 [Processor Local APIC/SAPIC Affinity]
[3A1h 0929   1]                       Length : 10
[3A2h 0930   1]      Proximity Domain Low(8) : 01
[3A3h 0931   1]                      Apic ID : 3D
[3A4h 0932   4]        Flags (decoded below) : 00000001
                                     Enabled : 1
[3A8h 0936   1]              Local Sapic EID : 00
[3A9h 0937   3]    Proximity Domain High(24) : 000000
[3ACh 0940   4]                 Clock Domain : 00000000
[3B0h 0944   1]                Subtable Type : 00 [Processor Local APIC/SAPIC Affinity]
[3B1h 0945   1]                       Length : 10
[3B2h 0946   1]      Proximity Domain Low(8) : 00
[3B3h 0947   1]                      Apic ID : FF
[3B4h 0948   4]        Flags (decoded below) : 00000000
                                     Enabled : 0
[3B8h 0952   1]              Local Sapic EID : 00
[3B9h 0953   3]    Proximity Domain High(24) : 000000
[3BCh 0956   4]                 Clock Domain : 00000000
[3C0h 0960   1]                Subtable Type : 00 [Processor Local APIC/SAPIC Affinity]
[3C1h 0961   1]                       Length : 10
[3C2h 0962   1]      Proximity Domain Low(8) : 00
[3C3h 0963   1]                      Apic ID : FF
[3C4h 0964   4]        Flags (decoded below) : 00000000
                                     Enabled : 0
[3C8h 0968   1]              Local Sapic EID : 00
[3C9h 0969   3]    Proximity Domain High(24) : 000000
[3CCh 0972   4]                 Clock Domain : 00000000
[3D0h 0976   1]                Subtable Type : 00 [Processor Local APIC/SAPIC Affinity]
[3D1h 0977   1]                       Length : 10
[3D2h 0978   1]      Proximity Domain Low(8) : 00
[3D3h 0979   1]                      Apic ID : FF
[3D4h 0980   4]        Flags (decoded below) : 00000000
                                     Enabled : 0
[3D8h 0984   1]              Local Sapic EID : 00
[3D9h 0985   3]    Proximity Domain High(24) : 000000
[3DCh 0988   4]                 Clock Domain : 00000000
[3E0h 0992   1]                Subtable Type : 00 [Processor Local APIC/SAPIC Affinity]
[3E1h 0993   1]                       Length : 10
[3E2h 0994   1]      Proximity Domain Low(8) : 00
[3E3h 0995   1]                      Apic ID : FF
[3E4h 0996   4]        Flags (decoded below) : 00000000
                                     Enabled : 0
[3E8h 1000   1]              Local Sapic EID : 00
[3E9h 1001   3]    Proximity Domain High(24) : 000000
[3ECh 1004   4]                 Clock Domain : 00000000
[3F0h 1008   1]                Subtable Type : 00 [Processor Local APIC/SAPIC Affinity]
[3F1h 1009   1]                       Length : 10
[3F2h 1010   1]      Proximity Domain Low(8) : 00
[3F3h 1011   1]                      Apic ID : FF
[3F4h 1012   4]        Flags (decoded below) : 00000000
                                     Enabled : 0
[3F8h 1016   1]              Local Sapic EID : 00
[3F9h 1017   3]    Proximity Domain High(24) : 000000
[3FCh 1020   4]                 Clock Domain : 00000000
[400h 1024   1]                Subtable Type : 00 [Processor Local APIC/SAPIC Affinity]
[401h 1025   1]                       Length : 10
[402h 1026   1]      Proximity Domain Low(8) : 00
[403h 1027   1]                      Apic ID : FF
[404h 1028   4]        Flags (decoded below) : 00000000
                                     Enabled : 0
[408h 1032   1]              Local Sapic EID : 00
[409h 1033   3]    Proximity Domain High(24) : 000000
[40Ch 1036   4]                 Clock Domain : 00000000
[410h 1040   1]                Subtable Type : 00 [Processor Local APIC/SAPIC Affinity]
[411h 1041   1]                       Length : 10
[412h 1042   1]      Proximity Domain Low(8) : 00
[413h 1043   1]                      Apic ID : FF
[414h 1044   4]        Flags (decoded below) : 00000000
                                     Enabled : 0
[418h 1048   1]              Local Sapic EID : 00
[419h 1049   3]    Proximity Domain High(24) : 000000
[41Ch 1052   4]                 Clock Domain : 00000000
[420h 1056   1]                Subtable Type : 00 [Processor Local APIC/SAPIC Affinity]
[421h 1057   1]                       Length : 10
[422h 1058   1]      Proximity Domain Low(8) : 00
[423h 1059   1]                      Apic ID : FF
[424h 1060   4]        Flags (decoded below) : 00000000
                                     Enabled : 0
[428h 1064   1]              Local Sapic EID : 00
[429h 1065   3]    Proximity Domain High(24) : 000000
[42Ch 1068   4]                 Clock Domain : 00000000
[430h 1072   1]                Subtable Type : 00 [Processor Local APIC/SAPIC Affinity]
[431h 1073   1]                       Length : 10
[432h 1074   1]      Proximity Domain Low(8) : 00
[433h 1075   1]                      Apic ID : FF
[434h 1076   4]        Flags (decoded below) : 00000000
                                     Enabled : 0
[438h 1080   1]              Local Sapic EID : 00
[439h 1081   3]    Proximity Domain High(24) : 000000
[43Ch 1084   4]                 Clock Domain : 00000000
[440h 1088   1]                Subtable Type : 00 [Processor Local APIC/SAPIC Affinity]
[441h 1089   1]                       Length : 10
[442h 1090   1]      Proximity Domain Low(8) : 00
[443h 1091   1]                      Apic ID : FF
[444h 1092   4]        Flags (decoded below) : 00000000
                                     Enabled : 0
[448h 1096   1]              Local Sapic EID : 00
[449h 1097   3]    Proximity Domain High(24) : 000000
[44Ch 1100   4]                 Clock Domain : 00000000
[450h 1104   1]                Subtable Type : 00 [Processor Local APIC/SAPIC Affinity]
[451h 1105   1]                       Length : 10
[452h 1106   1]      Proximity Domain Low(8) : 00
[453h 1107   1]                      Apic ID : FF
[454h 1108   4]        Flags (decoded below) : 00000000
                                     Enabled : 0
[458h 1112   1]              Local Sapic EID : 00
[459h 1113   3]    Proximity Domain High(24) : 000000
[45Ch 1116   4]                 Clock Domain : 00000000
[460h 1120   1]                Subtable Type : 00 [Processor Local APIC/SAPIC Affinity]
[461h 1121   1]                       Length : 10
[462h 1122   1]      Proximity Domain Low(8) : 00
[463h 1123   1]                      Apic ID : FF
[464h 1124   4]        Flags (decoded below) : 00000000
                                     Enabled : 0
[468h 1128   1]              Local Sapic EID : 00
[469h 1129   3]    Proximity Domain High(24) : 000000
[46Ch 1132   4]                 Clock Domain : 00000000
[470h 1136   1]                Subtable Type : 00 [Processor Local APIC/SAPIC Affinity]
[471h 1137   1]                       Length : 10
[472h 1138   1]      Proximity Domain Low(8) : 00
[473h 1139   1]                      Apic ID : FF
[474h 1140   4]        Flags (decoded below) : 00000000
                                     Enabled : 0
[478h 1144   1]              Local Sapic EID : 00
[479h 1145   3]    Proximity Domain High(24) : 000000
[47Ch 1148   4]                 Clock Domain : 00000000
[480h 1152   1]                Subtable Type : 00 [Processor Local APIC/SAPIC Affinity]
[481h 1153   1]                       Length : 10
[482h 1154   1]      Proximity Domain Low(8) : 00
[483h 1155   1]                      Apic ID : FF
[484h 1156   4]        Flags (decoded below) : 00000000
                                     Enabled : 0
[488h 1160   1]              Local Sapic EID : 00
[489h 1161   3]    Proximity Domain High(24) : 000000
[48Ch 1164   4]                 Clock Domain : 00000000
[490h 1168   1]                Subtable Type : 00 [Processor Local APIC/SAPIC Affinity]
[491h 1169   1]                       Length : 10
[492h 1170   1]      Proximity Domain Low(8) : 00
[493h 1171   1]                      Apic ID : FF
[494h 1172   4]        Flags (decoded below) : 00000000
                                     Enabled : 0
[498h 1176   1]              Local Sapic EID : 00
[499h 1177   3]    Proximity Domain High(24) : 000000
[49Ch 1180   4]                 Clock Domain : 00000000
[4A0h 1184   1]                Subtable Type : 00 [Processor Local APIC/SAPIC Affinity]
[4A1h 1185   1]                       Length : 10
[4A2h 1186   1]      Proximity Domain Low(8) : 00
[4A3h 1187   1]                      Apic ID : FF
[4A4h 1188   4]        Flags (decoded below) : 00000000
                                     Enabled : 0
[4A8h 1192   1]              Local Sapic EID : 00
[4A9h 1193   3]    Proximity Domain High(24) : 000000
[4ACh 1196   4]                 Clock Domain : 00000000
[4B0h 1200   1]                Subtable Type : 00 [Processor Local APIC/SAPIC Affinity]
[4B1h 1201   1]                       Length : 10
[4B2h 1202   1]      Proximity Domain Low(8) : 00
[4B3h 1203   1]                      Apic ID : FF
[4B4h 1204   4]        Flags (decoded below) : 00000000
                                     Enabled : 0
[4B8h 1208   1]              Local Sapic EID : 00
[4B9h 1209   3]    Proximity Domain High(24) : 000000
[4BCh 1212   4]                 Clock Domain : 00000000
[4C0h 1216   1]                Subtable Type : 00 [Processor Local APIC/SAPIC Affinity]
[4C1h 1217   1]                       Length : 10
[4C2h 1218   1]      Proximity Domain Low(8) : 00
[4C3h 1219   1]                      Apic ID : FF
[4C4h 1220   4]        Flags (decoded below) : 00000000
                                     Enabled : 0
[4C8h 1224   1]              Local Sapic EID : 00
[4C9h 1225   3]    Proximity Domain High(24) : 000000
[4CCh 1228   4]                 Clock Domain : 00000000
[4D0h 1232   1]                Subtable Type : 00 [Processor Local APIC/SAPIC Affinity]
[4D1h 1233   1]                       Length : 10
[4D2h 1234   1]      Proximity Domain Low(8) : 00
[4D3h 1235   1]                      Apic ID : FF
[4D4h 1236   4]        Flags (decoded below) : 00000000
                                     Enabled : 0
[4D8h 1240   1]              Local Sapic EID : 00
[4D9h 1241   3]    Proximity Domain High(24) : 000000
[4DCh 1244   4]                 Clock Domain : 00000000
[4E0h 1248   1]                Subtable Type : 00 [Processor Local APIC/SAPIC Affinity]
[4E1h 1249   1]                       Length : 10
[4E2h 1250   1]      Proximity Domain Low(8) : 00
[4E3h 1251   1]                      Apic ID : FF
[4E4h 1252   4]        Flags (decoded below) : 00000000
                                     Enabled : 0
[4E8h 1256   1]              Local Sapic EID : 00
[4E9h 1257   3]    Proximity Domain High(24) : 000000
[4ECh 1260   4]                 Clock Domain : 00000000
[4F0h 1264   1]                Subtable Type : 00 [Processor Local APIC/SAPIC Affinity]
[4F1h 1265   1]                       Length : 10
[4F2h 1266   1]      Proximity Domain Low(8) : 00
[4F3h 1267   1]                      Apic ID : FF
[4F4h 1268   4]        Flags (decoded below) : 00000000
                                     Enabled : 0
[4F8h 1272   1]              Local Sapic EID : 00
[4F9h 1273   3]    Proximity Domain High(24) : 000000
[4FCh 1276   4]                 Clock Domain : 00000000
[500h 1280   1]                Subtable Type : 00 [Processor Local APIC/SAPIC Affinity]
[501h 1281   1]                       Length : 10
[502h 1282   1]      Proximity Domain Low(8) : 00
[503h 1283   1]                      Apic ID : FF
[504h 1284   4]        Flags (decoded below) : 00000000
                                     Enabled : 0
[508h 1288   1]              Local Sapic EID : 00
[509h 1289   3]    Proximity Domain High(24) : 000000
[50Ch 1292   4]                 Clock Domain : 00000000
[510h 1296   1]                Subtable Type : 00 [Processor Local APIC/SAPIC Affinity]
[511h 1297   1]                       Length : 10
[512h 1298   1]      Proximity Domain Low(8) : 00
[513h 1299   1]                      Apic ID : FF
[514h 1300   4]        Flags (decoded below) : 00000000
                                     Enabled : 0
[518h 1304   1]              Local Sapic EID : 00
[519h 1305   3]    Proximity Domain High(24) : 000000
[51Ch 1308   4]                 Clock Domain : 00000000
[520h 1312   1]                Subtable Type : 00 [Processor Local APIC/SAPIC Affinity]
[521h 1313   1]                       Length : 10
[522h 1314   1]      Proximity Domain Low(8) : 00
[523h 1315   1]                      Apic ID : FF
[524h 1316   4]        Flags (decoded below) : 00000000
                                     Enabled : 0
[528h 1320   1]              Local Sapic EID : 00
[529h 1321   3]    Proximity Domain High(24) : 000000
[52Ch 1324   4]                 Clock Domain : 00000000
[530h 1328   1]                Subtable Type : 00 [Processor Local APIC/SAPIC Affinity]
[531h 1329   1]                       Length : 10
[532h 1330   1]      Proximity Domain Low(8) : 00
[533h 1331   1]                      Apic ID : FF
[534h 1332   4]        Flags (decoded below) : 00000000
                                     Enabled : 0
[538h 1336   1]              Local Sapic EID : 00
[539h 1337   3]    Proximity Domain High(24) : 000000
[53Ch 1340   4]                 Clock Domain : 00000000
[540h 1344   1]                Subtable Type : 00 [Processor Local APIC/SAPIC Affinity]
[541h 1345   1]                       Length : 10
[542h 1346   1]      Proximity Domain Low(8) : 00
[543h 1347   1]                      Apic ID : FF
[544h 1348   4]        Flags (decoded below) : 00000000
                                     Enabled : 0
[548h 1352   1]              Local Sapic EID : 00
[549h 1353   3]    Proximity Domain High(24) : 000000
[54Ch 1356   4]                 Clock Domain : 00000000
[550h 1360   1]                Subtable Type : 00 [Processor Local APIC/SAPIC Affinity]
[551h 1361   1]                       Length : 10
[552h 1362   1]      Proximity Domain Low(8) : 00
[553h 1363   1]                      Apic ID : FF
[554h 1364   4]        Flags (decoded below) : 00000000
                                     Enabled : 0
[558h 1368   1]              Local Sapic EID : 00
[559h 1369   3]    Proximity Domain High(24) : 000000
[55Ch 1372   4]                 Clock Domain : 00000000
[560h 1376   1]                Subtable Type : 00 [Processor Local APIC/SAPIC Affinity]
[561h 1377   1]                       Length : 10
[562h 1378   1]      Proximity Domain Low(8) : 00
[563h 1379   1]                      Apic ID : FF
[564h 1380   4]        Flags (decoded below) : 00000000
                                     Enabled : 0
[568h 1384   1]              Local Sapic EID : 00
[569h 1385   3]    Proximity Domain High(24) : 000000
[56Ch 1388   4]                 Clock Domain : 00000000
[570h 1392   1]                Subtable Type : 00 [Processor Local APIC/SAPIC Affinity]
[571h 1393   1]                       Length : 10
[572h 1394   1]      Proximity Domain Low(8) : 00
[573h 1395   1]                      Apic ID : FF
[574h 1396   4]        Flags (decoded below) : 00000000
                                     Enabled : 0
[578h 1400   1]              Local Sapic EID : 00
[579h 1401   3]    Proximity Domain High(24) : 000000
[57Ch 1404   4]                 Clock Domain : 00000000
[580h 1408   1]                Subtable Type : 00 [Processor Local APIC/SAPIC Affinity]
[581h 1409   1]                       Length : 10
[582h 1410   1]      Proximity Domain Low(8) : 00
[583h 1411   1]                      Apic ID : FF
[584h 1412   4]        Flags (decoded below) : 00000000
                                     Enabled : 0
[588h 1416   1]              Local Sapic EID : 00
[589h 1417   3]    Proximity Domain High(24) : 000000
[58Ch 1420   4]                 Clock Domain : 00000000
[590h 1424   1]                Subtable Type : 00 [Processor Local APIC/SAPIC Affinity]
[591h 1425   1]                       Length : 10
[592h 1426   1]      Proximity Domain Low(8) : 00
[593h 1427   1]                      Apic ID : FF
[594h 1428   4]        Flags (decoded below) : 00000000
                                     Enabled : 0
[598h 1432   1]              Local Sapic EID : 00
[599h 1433   3]    Proximity Domain High(24) : 000000
[59Ch 1436   4]                 Clock Domain : 00000000
[5A0h 1440   1]                Subtable Type : 00 [Processor Local APIC/SAPIC Affinity]
[5A1h 1441   1]                       Length : 10
[5A2h 1442   1]      Proximity Domain Low(8) : 00
[5A3h 1443   1]                      Apic ID : FF
[5A4h 1444   4]        Flags (decoded below) : 00000000
                                     Enabled : 0
[5A8h 1448   1]              Local Sapic EID : 00
[5A9h 1449   3]    Proximity Domain High(24) : 000000
[5ACh 1452   4]                 Clock Domain : 00000000
[5B0h 1456   1]                Subtable Type : 00 [Processor Local APIC/SAPIC Affinity]
[5B1h 1457   1]                       Length : 10
[5B2h 1458   1]      Proximity Domain Low(8) : 00
[5B3h 1459   1]                      Apic ID : FF
[5B4h 1460   4]        Flags (decoded below) : 00000000
                                     Enabled : 0
[5B8h 1464   1]              Local Sapic EID : 00
[5B9h 1465   3]    Proximity Domain High(24) : 000000
[5BCh 1468   4]                 Clock Domain : 00000000
[5C0h 1472   1]                Subtable Type : 00 [Processor Local APIC/SAPIC Affinity]
[5C1h 1473   1]                       Length : 10
[5C2h 1474   1]      Proximity Domain Low(8) : 00
[5C3h 1475   1]                      Apic ID : FF
[5C4h 1476   4]        Flags (decoded below) : 00000000
                                     Enabled : 0
[5C8h 1480   1]              Local Sapic EID : 00
[5C9h 1481   3]    Proximity Domain High(24) : 000000
[5CCh 1484   4]                 Clock Domain : 00000000
[5D0h 1488   1]                Subtable Type : 00 [Processor Local APIC/SAPIC Affinity]
[5D1h 1489   1]                       Length : 10
[5D2h 1490   1]      Proximity Domain Low(8) : 00
[5D3h 1491   1]                      Apic ID : FF
[5D4h 1492   4]        Flags (decoded below) : 00000000
                                     Enabled : 0
[5D8h 1496   1]              Local Sapic EID : 00
[5D9h 1497   3]    Proximity Domain High(24) : 000000
[5DCh 1500   4]                 Clock Domain : 00000000
[5E0h 1504   1]                Subtable Type : 00 [Processor Local APIC/SAPIC Affinity]
[5E1h 1505   1]                       Length : 10
[5E2h 1506   1]      Proximity Domain Low(8) : 00
[5E3h 1507   1]                      Apic ID : FF
[5E4h 1508   4]        Flags (decoded below) : 00000000
                                     Enabled : 0
[5E8h 1512   1]              Local Sapic EID : 00
[5E9h 1513   3]    Proximity Domain High(24) : 000000
[5ECh 1516   4]                 Clock Domain : 00000000
[5F0h 1520   1]                Subtable Type : 00 [Processor Local APIC/SAPIC Affinity]
[5F1h 1521   1]                       Length : 10
[5F2h 1522   1]      Proximity Domain Low(8) : 00
[5F3h 1523   1]                      Apic ID : FF
[5F4h 1524   4]        Flags (decoded below) : 00000000
                                     Enabled : 0
[5F8h 1528   1]              Local Sapic EID : 00
[5F9h 1529   3]    Proximity Domain High(24) : 000000
[5FCh 1532   4]                 Clock Domain : 00000000
[600h 1536   1]                Subtable Type : 00 [Processor Local APIC/SAPIC Affinity]
[601h 1537   1]                       Length : 10
[602h 1538   1]      Proximity Domain Low(8) : 00
[603h 1539   1]                      Apic ID : FF
[604h 1540   4]        Flags (decoded below) : 00000000
                                     Enabled : 0
[608h 1544   1]              Local Sapic EID : 00
[609h 1545   3]    Proximity Domain High(24) : 000000
[60Ch 1548   4]                 Clock Domain : 00000000
[610h 1552   1]                Subtable Type : 00 [Processor Local APIC/SAPIC Affinity]
[611h 1553   1]                       Length : 10
[612h 1554   1]      Proximity Domain Low(8) : 00
[613h 1555   1]                      Apic ID : FF
[614h 1556   4]        Flags (decoded below) : 00000000
                                     Enabled : 0
[618h 1560   1]              Local Sapic EID : 00
[619h 1561   3]    Proximity Domain High(24) : 000000
[61Ch 1564   4]                 Clock Domain : 00000000
[620h 1568   1]                Subtable Type : 00 [Processor Local APIC/SAPIC Affinity]
[621h 1569   1]                       Length : 10
[622h 1570   1]      Proximity Domain Low(8) : 00
[623h 1571   1]                      Apic ID : FF
[624h 1572   4]        Flags (decoded below) : 00000000
                                     Enabled : 0
[628h 1576   1]              Local Sapic EID : 00
[629h 1577   3]    Proximity Domain High(24) : 000000
[62Ch 1580   4]                 Clock Domain : 00000000
[630h 1584   1]                Subtable Type : 00 [Processor Local APIC/SAPIC Affinity]
[631h 1585   1]                       Length : 10
[632h 1586   1]      Proximity Domain Low(8) : 00
[633h 1587   1]                      Apic ID : FF
[634h 1588   4]        Flags (decoded below) : 00000000
                                     Enabled : 0
[638h 1592   1]              Local Sapic EID : 00
[639h 1593   3]    Proximity Domain High(24) : 000000
[63Ch 1596   4]                 Clock Domain : 00000000
[640h 1600   1]                Subtable Type : 00 [Processor Local APIC/SAPIC Affinity]
[641h 1601   1]                       Length : 10
[642h 1602   1]      Proximity Domain Low(8) : 00
[643h 1603   1]                      Apic ID : FF
[644h 1604   4]        Flags (decoded below) : 00000000
                                     Enabled : 0
[648h 1608   1]              Local Sapic EID : 00
[649h 1609   3]    Proximity Domain High(24) : 000000
[64Ch 1612   4]                 Clock Domain : 00000000
[650h 1616   1]                Subtable Type : 00 [Processor Local APIC/SAPIC Affinity]
[651h 1617   1]                       Length : 10
[652h 1618   1]      Proximity Domain Low(8) : 00
[653h 1619   1]                      Apic ID : FF
[654h 1620   4]        Flags (decoded below) : 00000000
                                     Enabled : 0
[658h 1624   1]              Local Sapic EID : 00
[659h 1625   3]    Proximity Domain High(24) : 000000
[65Ch 1628   4]                 Clock Domain : 00000000
[660h 1632   1]                Subtable Type : 00 [Processor Local APIC/SAPIC Affinity]
[661h 1633   1]                       Length : 10
[662h 1634   1]      Proximity Domain Low(8) : 00
[663h 1635   1]                      Apic ID : FF
[664h 1636   4]        Flags (decoded below) : 00000000
                                     Enabled : 0
[668h 1640   1]              Local Sapic EID : 00
[669h 1641   3]    Proximity Domain High(24) : 000000
[66Ch 1644   4]                 Clock Domain : 00000000
[670h 1648   1]                Subtable Type : 00 [Processor Local APIC/SAPIC Affinity]
[671h 1649   1]                       Length : 10
[672h 1650   1]      Proximity Domain Low(8) : 00
[673h 1651   1]                      Apic ID : FF
[674h 1652   4]        Flags (decoded below) : 00000000
                                     Enabled : 0
[678h 1656   1]              Local Sapic EID : 00
[679h 1657   3]    Proximity Domain High(24) : 000000
[67Ch 1660   4]                 Clock Domain : 00000000
[680h 1664   1]                Subtable Type : 00 [Processor Local APIC/SAPIC Affinity]
[681h 1665   1]                       Length : 10
[682h 1666   1]      Proximity Domain Low(8) : 00
[683h 1667   1]                      Apic ID : FF
[684h 1668   4]        Flags (decoded below) : 00000000
                                     Enabled : 0
[688h 1672   1]              Local Sapic EID : 00
[689h 1673   3]    Proximity Domain High(24) : 000000
[68Ch 1676   4]                 Clock Domain : 00000000
[690h 1680   1]                Subtable Type : 00 [Processor Local APIC/SAPIC Affinity]
[691h 1681   1]                       Length : 10
[692h 1682   1]      Proximity Domain Low(8) : 00
[693h 1683   1]                      Apic ID : FF
[694h 1684   4]        Flags (decoded below) : 00000000
                                     Enabled : 0
[698h 1688   1]              Local Sapic EID : 00
[699h 1689   3]    Proximity Domain High(24) : 000000
[69Ch 1692   4]                 Clock Domain : 00000000
[6A0h 1696   1]                Subtable Type : 00 [Processor Local APIC/SAPIC Affinity]
[6A1h 1697   1]                       Length : 10
[6A2h 1698   1]      Proximity Domain Low(8) : 00
[6A3h 1699   1]                      Apic ID : FF
[6A4h 1700   4]        Flags (decoded below) : 00000000
                                     Enabled : 0
[6A8h 1704   1]              Local Sapic EID : 00
[6A9h 1705   3]    Proximity Domain High(24) : 000000
[6ACh 1708   4]                 Clock Domain : 00000000
[6B0h 1712   1]                Subtable Type : 00 [Processor Local APIC/SAPIC Affinity]
[6B1h 1713   1]                       Length : 10
[6B2h 1714   1]      Proximity Domain Low(8) : 00
[6B3h 1715   1]                      Apic ID : FF
[6B4h 1716   4]        Flags (decoded below) : 00000000
                                     Enabled : 0
[6B8h 1720   1]              Local Sapic EID : 00
[6B9h 1721   3]    Proximity Domain High(24) : 000000
[6BCh 1724   4]                 Clock Domain : 00000000
[6C0h 1728   1]                Subtable Type : 00 [Processor Local APIC/SAPIC Affinity]
[6C1h 1729   1]                       Length : 10
[6C2h 1730   1]      Proximity Domain Low(8) : 00
[6C3h 1731   1]                      Apic ID : FF
[6C4h 1732   4]        Flags (decoded below) : 00000000
                                     Enabled : 0
[6C8h 1736   1]              Local Sapic EID : 00
[6C9h 1737   3]    Proximity Domain High(24) : 000000
[6CCh 1740   4]                 Clock Domain : 00000000
[6D0h 1744   1]                Subtable Type : 00 [Processor Local APIC/SAPIC Affinity]
[6D1h 1745   1]                       Length : 10
[6D2h 1746   1]      Proximity Domain Low(8) : 00
[6D3h 1747   1]                      Apic ID : FF
[6D4h 1748   4]        Flags (decoded below) : 00000000
                                     Enabled : 0
[6D8h 1752   1]              Local Sapic EID : 00
[6D9h 1753   3]    Proximity Domain High(24) : 000000
[6DCh 1756   4]                 Clock Domain : 00000000
[6E0h 1760   1]                Subtable Type : 00 [Processor Local APIC/SAPIC Affinity]
[6E1h 1761   1]                       Length : 10
[6E2h 1762   1]      Proximity Domain Low(8) : 00
[6E3h 1763   1]                      Apic ID : FF
[6E4h 1764   4]        Flags (decoded below) : 00000000
                                     Enabled : 0
[6E8h 1768   1]              Local Sapic EID : 00
[6E9h 1769   3]    Proximity Domain High(24) : 000000
[6ECh 1772   4]                 Clock Domain : 00000000
[6F0h 1776   1]                Subtable Type : 00 [Processor Local APIC/SAPIC Affinity]
[6F1h 1777   1]                       Length : 10
[6F2h 1778   1]      Proximity Domain Low(8) : 00
[6F3h 1779   1]                      Apic ID : FF
[6F4h 1780   4]        Flags (decoded below) : 00000000
                                     Enabled : 0
[6F8h 1784   1]              Local Sapic EID : 00
[6F9h 1785   3]    Proximity Domain High(24) : 000000
[6FCh 1788   4]                 Clock Domain : 00000000
[700h 1792   1]                Subtable Type : 00 [Processor Local APIC/SAPIC Affinity]
[701h 1793   1]                       Length : 10
[702h 1794   1]      Proximity Domain Low(8) : 00
[703h 1795   1]                      Apic ID : FF
[704h 1796   4]        Flags (decoded below) : 00000000
                                     Enabled : 0
[708h 1800   1]              Local Sapic EID : 00
[709h 1801   3]    Proximity Domain High(24) : 000000
[70Ch 1804   4]                 Clock Domain : 00000000
[710h 1808   1]                Subtable Type : 00 [Processor Local APIC/SAPIC Affinity]
[711h 1809   1]                       Length : 10
[712h 1810   1]      Proximity Domain Low(8) : 00
[713h 1811   1]                      Apic ID : FF
[714h 1812   4]        Flags (decoded below) : 00000000
                                     Enabled : 0
[718h 1816   1]              Local Sapic EID : 00
[719h 1817   3]    Proximity Domain High(24) : 000000
[71Ch 1820   4]                 Clock Domain : 00000000
[720h 1824   1]                Subtable Type : 00 [Processor Local APIC/SAPIC Affinity]
[721h 1825   1]                       Length : 10
[722h 1826   1]      Proximity Domain Low(8) : 00
[723h 1827   1]                      Apic ID : FF
[724h 1828   4]        Flags (decoded below) : 00000000
                                     Enabled : 0
[728h 1832   1]              Local Sapic EID : 00
[729h 1833   3]    Proximity Domain High(24) : 000000
[72Ch 1836   4]                 Clock Domain : 00000000
[730h 1840   1]                Subtable Type : 01 [Memory Affinity]
[731h 1841   1]                       Length : 28
[732h 1842   4]             Proximity Domain : 00000000
[736h 1846   2]                    Reserved1 : 0000
[738h 1848   8]                 Base Address : 0000000000000000
[740h 1856   8]               Address Length : 0000000080000000
[748h 1864   4]                    Reserved2 : 00000000
[74Ch 1868   4]        Flags (decoded below) : 00000001
                                     Enabled : 1
                               Hot Pluggable : 0
                                Non-Volatile : 0
[750h 1872   8]                    Reserved3 : 0000000000000000
[758h 1880   1]                Subtable Type : 01 [Memory Affinity]
[759h 1881   1]                       Length : 28
[75Ah 1882   4]             Proximity Domain : 00000000
[75Eh 1886   2]                    Reserved1 : 0000
[760h 1888   8]                 Base Address : 0000000100000000
[768h 1896   8]               Address Length : 0000001F80000000
[770h 1904   4]                    Reserved2 : 00000000
[774h 1908   4]        Flags (decoded below) : 00000001
                                     Enabled : 1
                               Hot Pluggable : 0
                                Non-Volatile : 0
[778h 1912   8]                    Reserved3 : 0000000000000000
[780h 1920   1]                Subtable Type : 01 [Memory Affinity]
[781h 1921   1]                       Length : 28
[782h 1922   4]             Proximity Domain : 00000001
[786h 1926   2]                    Reserved1 : 0000
[788h 1928   8]                 Base Address : 0000002080000000
[790h 1936   8]               Address Length : 0000002000000000
[798h 1944   4]                    Reserved2 : 00000000
[79Ch 1948   4]        Flags (decoded below) : 00000001
                                     Enabled : 1
                               Hot Pluggable : 0
                                Non-Volatile : 0
[7A0h 1952   8]                    Reserved3 : 0000000000000000
[7A8h 1960   1]                Subtable Type : 01 [Memory Affinity]
[7A9h 1961   1]                       Length : 28
[7AAh 1962   4]             Proximity Domain : 00000000
[7AEh 1966   2]                    Reserved1 : 0000
[7B0h 1968   8]                 Base Address : 0000000000000000
[7B8h 1976   8]               Address Length : 0000000000000000
[7C0h 1984   4]                    Reserved2 : 00000000
[7C4h 1988   4]        Flags (decoded below) : 00000000
                                     Enabled : 0
                               Hot Pluggable : 0
                                Non-Volatile : 0
[7C8h 1992   8]                    Reserved3 : 0000000000000000
[7D0h 2000   1]                Subtable Type : 01 [Memory Affinity]
[7D1h 2001   1]                       Length : 28
[7D2h 2002   4]             Proximity Domain : 00000000
[7D6h 2006   2]                    Reserved1 : 0000
[7D8h 2008   8]                 Base Address : 0000000000000000
[7E0h 2016   8]               Address Length : 0000000000000000
[7E8h 2024   4]                    Reserved2 : 00000000
[7ECh 2028   4]        Flags (decoded below) : 00000000
                                     Enabled : 0
                               Hot Pluggable : 0
                                Non-Volatile : 0
[7F0h 2032   8]                    Reserved3 : 0000000000000000
[7F8h 2040   1]                Subtable Type : 01 [Memory Affinity]
[7F9h 2041   1]                       Length : 28
[7FAh 2042   4]             Proximity Domain : 00000000
[7FEh 2046   2]                    Reserved1 : 0000
[800h 2048   8]                 Base Address : 0000000000000000
[808h 2056   8]               Address Length : 0000000000000000
[810h 2064   4]                    Reserved2 : 00000000
[814h 2068   4]        Flags (decoded below) : 00000000
                                     Enabled : 0
                               Hot Pluggable : 0
                                Non-Volatile : 0
[818h 2072   8]                    Reserved3 : 0000000000000000
[820h 2080   1]                Subtable Type : 01 [Memory Affinity]
[821h 2081   1]                       Length : 28
[822h 2082   4]             Proximity Domain : 00000000
[826h 2086   2]                    Reserved1 : 0000
[828h 2088   8]                 Base Address : 0000000000000000
[830h 2096   8]               Address Length : 0000000000000000
[838h 2104   4]                    Reserved2 : 00000000
[83Ch 2108   4]        Flags (decoded below) : 00000000
                                     Enabled : 0
                               Hot Pluggable : 0
                                Non-Volatile : 0
[840h 2112   8]                    Reserved3 : 0000000000000000
[848h 2120   1]                Subtable Type : 01 [Memory Affinity]
[849h 2121   1]                       Length : 28
[84Ah 2122   4]             Proximity Domain : 00000000
[84Eh 2126   2]                    Reserved1 : 0000
[850h 2128   8]                 Base Address : 0000000000000000
[858h 2136   8]               Address Length : 0000000000000000
[860h 2144   4]                    Reserved2 : 00000000
[864h 2148   4]        Flags (decoded below) : 00000000
                                     Enabled : 0
                               Hot Pluggable : 0
                                Non-Volatile : 0
[868h 2152   8]                    Reserved3 : 0000000000000000
[870h 2160   1]                Subtable Type : 01 [Memory Affinity]
[871h 2161   1]                       Length : 28
[872h 2162   4]             Proximity Domain : 00000000
[876h 2166   2]                    Reserved1 : 0000
[878h 2168   8]                 Base Address : 0000000000000000
[880h 2176   8]               Address Length : 0000000000000000
[888h 2184   4]                    Reserved2 : 00000000
[88Ch 2188   4]        Flags (decoded below) : 00000000
                                     Enabled : 0
                               Hot Pluggable : 0
                                Non-Volatile : 0
[890h 2192   8]                    Reserved3 : 0000000000000000
[898h 2200   1]                Subtable Type : 01 [Memory Affinity]
[899h 2201   1]                       Length : 28
[89Ah 2202   4]             Proximity Domain : 00000000
[89Eh 2206   2]                    Reserved1 : 0000
[8A0h 2208   8]                 Base Address : 0000000000000000
[8A8h 2216   8]               Address Length : 0000000000000000
[8B0h 2224   4]                    Reserved2 : 00000000
[8B4h 2228   4]        Flags (decoded below) : 00000000
                                     Enabled : 0
                               Hot Pluggable : 0
                                Non-Volatile : 0
[8B8h 2232   8]                    Reserved3 : 0000000000000000
[8C0h 2240   1]                Subtable Type : 01 [Memory Affinity]
[8C1h 2241   1]                       Length : 28
[8C2h 2242   4]             Proximity Domain : 00000000
[8C6h 2246   2]                    Reserved1 : 0000
[8C8h 2248   8]                 Base Address : 0000000000000000
[8D0h 2256   8]               Address Length : 0000000000000000
[8D8h 2264   4]                    Reserved2 : 00000000
[8DCh 2268   4]        Flags (decoded below) : 00000000
                                     Enabled : 0
                               Hot Pluggable : 0
                                Non-Volatile : 0
[8E0h 2272   8]                    Reserved3 : 0000000000000000
[8E8h 2280   1]                Subtable Type : 01 [Memory Affinity]
[8E9h 2281   1]                       Length : 28
[8EAh 2282   4]             Proximity Domain : 00000000
[8EEh 2286   2]                    Reserved1 : 0000
[8F0h 2288   8]                 Base Address : 0000000000000000
[8F8h 2296   8]               Address Length : 0000000000000000
[900h 2304   4]                    Reserved2 : 00000000
[904h 2308   4]        Flags (decoded below) : 00000000
                                     Enabled : 0
                               Hot Pluggable : 0
                                Non-Volatile : 0
[908h 2312   8]                    Reserved3 : 0000000000000000
[910h 2320   1]                Subtable Type : 01 [Memory Affinity]
[911h 2321   1]                       Length : 28
[912h 2322   4]             Proximity Domain : 00000000
[916h 2326   2]                    Reserved1 : 0000
[918h 2328   8]                 Base Address : 0000000000000000
[920h 2336   8]               Address Length : 0000000000000000
[928h 2344   4]                    Reserved2 : 00000000
[92Ch 2348   4]        Flags (decoded below) : 00000000
                                     Enabled : 0
                               Hot Pluggable : 0
                                Non-Volatile : 0
[930h 2352   8]                    Reserved3 : 0000000000000000
[938h 2360   1]                Subtable Type : 01 [Memory Affinity]
[939h 2361   1]                       Length : 28
[93Ah 2362   4]             Proximity Domain : 00000000
[93Eh 2366   2]                    Reserved1 : 0000
[940h 2368   8]                 Base Address : 0000000000000000
[948h 2376   8]               Address Length : 0000000000000000
[950h 2384   4]                    Reserved2 : 00000000
[954h 2388   4]        Flags (decoded below) : 00000000
                                     Enabled : 0
                               Hot Pluggable : 0
                                Non-Volatile : 0
[958h 2392   8]                    Reserved3 : 0000000000000000
[960h 2400   1]                Subtable Type : 01 [Memory Affinity]
[961h 2401   1]                       Length : 28
[962h 2402   4]             Proximity Domain : 00000000
[966h 2406   2]                    Reserved1 : 0000
[968h 2408   8]                 Base Address : 0000000000000000
[970h 2416   8]               Address Length : 0000000000000000
[978h 2424   4]                    Reserved2 : 00000000
[97Ch 2428   4]        Flags (decoded below) : 00000000
                                     Enabled : 0
                               Hot Pluggable : 0
                                Non-Volatile : 0
[980h 2432   8]                    Reserved3 : 0000000000000000
[988h 2440   1]                Subtable Type : 01 [Memory Affinity]
[989h 2441   1]                       Length : 28
[98Ah 2442   4]             Proximity Domain : 00000000
[98Eh 2446   2]                    Reserved1 : 0000
[990h 2448   8]                 Base Address : 0000000000000000
[998h 2456   8]               Address Length : 0000000000000000
[9A0h 2464   4]                    Reserved2 : 00000000
[9A4h 2468   4]        Flags (decoded below) : 00000000
                                     Enabled : 0
                               Hot Pluggable : 0
                                Non-Volatile : 0
[9A8h 2472   8]                    Reserved3 : 0000000000000000
[9B0h 2480   1]                Subtable Type : 02 [Processor Local x2APIC Affinity]
[9B1h 2481   1]                       Length : 18
[9B2h 2482   2]                    Reserved1 : 0000
[9B4h 2484   4]             Proximity Domain : 00000000
[9B8h 2488   4]                      Apic ID : FFFFFFFF
[9BCh 2492   4]        Flags (decoded below) : 00000000
                                     Enabled : 0
[9C0h 2496   4]                 Clock Domain : 00000000
[9C4h 2500   4]                    Reserved2 : 00000000
[9C8h 2504   1]                Subtable Type : 02 [Processor Local x2APIC Affinity]
[9C9h 2505   1]                       Length : 18
[9CAh 2506   2]                    Reserved1 : 0000
[9CCh 2508   4]             Proximity Domain : 00000000
[9D0h 2512   4]                      Apic ID : FFFFFFFF
[9D4h 2516   4]        Flags (decoded below) : 00000000
                                     Enabled : 0
[9D8h 2520   4]                 Clock Domain : 00000000
[9DCh 2524   4]                    Reserved2 : 00000000
[9E0h 2528   1]                Subtable Type : 02 [Processor Local x2APIC Affinity]
[9E1h 2529   1]                       Length : 18
[9E2h 2530   2]                    Reserved1 : 0000
[9E4h 2532   4]             Proximity Domain : 00000000
[9E8h 2536   4]                      Apic ID : FFFFFFFF
[9ECh 2540   4]        Flags (decoded below) : 00000000
                                     Enabled : 0
[9F0h 2544   4]                 Clock Domain : 00000000
[9F4h 2548   4]                    Reserved2 : 00000000
[9F8h 2552   1]                Subtable Type : 02 [Processor Local x2APIC Affinity]
[9F9h 2553   1]                       Length : 18
[9FAh 2554   2]                    Reserved1 : 0000
[9FCh 2556   4]             Proximity Domain : 00000000
[A00h 2560   4]                      Apic ID : FFFFFFFF
[A04h 2564   4]        Flags (decoded below) : 00000000
                                     Enabled : 0
[A08h 2568   4]                 Clock Domain : 00000000
[A0Ch 2572   4]                    Reserved2 : 00000000
[A10h 2576   1]                Subtable Type : 02 [Processor Local x2APIC Affinity]
[A11h 2577   1]                       Length : 18
[A12h 2578   2]                    Reserved1 : 0000
[A14h 2580   4]             Proximity Domain : 00000000
[A18h 2584   4]                      Apic ID : FFFFFFFF
[A1Ch 2588   4]        Flags (decoded below) : 00000000
                                     Enabled : 0
[A20h 2592   4]                 Clock Domain : 00000000
[A24h 2596   4]                    Reserved2 : 00000000
[A28h 2600   1]                Subtable Type : 02 [Processor Local x2APIC Affinity]
[A29h 2601   1]                       Length : 18
[A2Ah 2602   2]                    Reserved1 : 0000
[A2Ch 2604   4]             Proximity Domain : 00000000
[A30h 2608   4]                      Apic ID : FFFFFFFF
[A34h 2612   4]        Flags (decoded below) : 00000000
                                     Enabled : 0
[A38h 2616   4]                 Clock Domain : 00000000
[A3Ch 2620   4]                    Reserved2 : 00000000
[A40h 2624   1]                Subtable Type : 02 [Processor Local x2APIC Affinity]
[A41h 2625   1]                       Length : 18
[A42h 2626   2]                    Reserved1 : 0000
[A44h 2628   4]             Proximity Domain : 00000000
[A48h 2632   4]                      Apic ID : FFFFFFFF
[A4Ch 2636   4]        Flags (decoded below) : 00000000
                                     Enabled : 0
[A50h 2640   4]                 Clock Domain : 00000000
[A54h 2644   4]                    Reserved2 : 00000000
[A58h 2648   1]                Subtable Type : 02 [Processor Local x2APIC Affinity]
[A59h 2649   1]                       Length : 18
[A5Ah 2650   2]                    Reserved1 : 0000
[A5Ch 2652   4]             Proximity Domain : 00000000
[A60h 2656   4]                      Apic ID : FFFFFFFF
[A64h 2660   4]        Flags (decoded below) : 00000000
                                     Enabled : 0
[A68h 2664   4]                 Clock Domain : 00000000
[A6Ch 2668   4]                    Reserved2 : 00000000
[A70h 2672   1]                Subtable Type : 02 [Processor Local x2APIC Affinity]
[A71h 2673   1]                       Length : 18
[A72h 2674   2]                    Reserved1 : 0000
[A74h 2676   4]             Proximity Domain : 00000000
[A78h 2680   4]                      Apic ID : FFFFFFFF
[A7Ch 2684   4]        Flags (decoded below) : 00000000
                                     Enabled : 0
[A80h 2688   4]                 Clock Domain : 00000000
[A84h 2692   4]                    Reserved2 : 00000000
[A88h 2696   1]                Subtable Type : 02 [Processor Local x2APIC Affinity]
[A89h 2697   1]                       Length : 18
[A8Ah 2698   2]                    Reserved1 : 0000
[A8Ch 2700   4]             Proximity Domain : 00000000
[A90h 2704   4]                      Apic ID : FFFFFFFF
[A94h 2708   4]        Flags (decoded below) : 00000000
                                     Enabled : 0
[A98h 2712   4]                 Clock Domain : 00000000
[A9Ch 2716   4]                    Reserved2 : 00000000
[AA0h 2720   1]                Subtable Type : 02 [Processor Local x2APIC Affinity]
[AA1h 2721   1]                       Length : 18
[AA2h 2722   2]                    Reserved1 : 0000
[AA4h 2724   4]             Proximity Domain : 00000000
[AA8h 2728   4]                      Apic ID : FFFFFFFF
[AACh 2732   4]        Flags (decoded below) : 00000000
                                     Enabled : 0
[AB0h 2736   4]                 Clock Domain : 00000000
[AB4h 2740   4]                    Reserved2 : 00000000
[AB8h 2744   1]                Subtable Type : 02 [Processor Local x2APIC Affinity]
[AB9h 2745   1]                       Length : 18
[ABAh 2746   2]                    Reserved1 : 0000
[ABCh 2748   4]             Proximity Domain : 00000000
[AC0h 2752   4]                      Apic ID : FFFFFFFF
[AC4h 2756   4]        Flags (decoded below) : 00000000
                                     Enabled : 0
[AC8h 2760   4]                 Clock Domain : 00000000
[ACCh 2764   4]                    Reserved2 : 00000000
[AD0h 2768   1]                Subtable Type : 02 [Processor Local x2APIC Affinity]
[AD1h 2769   1]                       Length : 18
[AD2h 2770   2]                    Reserved1 : 0000
[AD4h 2772   4]             Proximity Domain : 00000000
[AD8h 2776   4]                      Apic ID : FFFFFFFF
[ADCh 2780   4]        Flags (decoded below) : 00000000
                                     Enabled : 0
[AE0h 2784   4]                 Clock Domain : 00000000
[AE4h 2788   4]                    Reserved2 : 00000000
[AE8h 2792   1]                Subtable Type : 02 [Processor Local x2APIC Affinity]
[AE9h 2793   1]                       Length : 18
[AEAh 2794   2]                    Reserved1 : 0000
[AECh 2796   4]             Proximity Domain : 00000000
[AF0h 2800   4]                      Apic ID : FFFFFFFF
[AF4h 2804   4]        Flags (decoded below) : 00000000
                                     Enabled : 0
[AF8h 2808   4]                 Clock Domain : 00000000
[AFCh 2812   4]                    Reserved2 : 00000000
[B00h 2816   1]                Subtable Type : 02 [Processor Local x2APIC Affinity]
[B01h 2817   1]                       Length : 18
[B02h 2818   2]                    Reserved1 : 0000
[B04h 2820   4]             Proximity Domain : 00000000
[B08h 2824   4]                      Apic ID : FFFFFFFF
[B0Ch 2828   4]        Flags (decoded below) : 00000000
                                     Enabled : 0
[B10h 2832   4]                 Clock Domain : 00000000
[B14h 2836   4]                    Reserved2 : 00000000
[B18h 2840   1]                Subtable Type : 02 [Processor Local x2APIC Affinity]
[B19h 2841   1]                       Length : 18
[B1Ah 2842   2]                    Reserved1 : 0000
[B1Ch 2844   4]             Proximity Domain : 00000000
[B20h 2848   4]                      Apic ID : FFFFFFFF
[B24h 2852   4]        Flags (decoded below) : 00000000
                                     Enabled : 0
[B28h 2856   4]                 Clock Domain : 00000000
[B2Ch 2860   4]                    Reserved2 : 00000000
[B30h 2864   1]                Subtable Type : 02 [Processor Local x2APIC Affinity]
[B31h 2865   1]                       Length : 18
[B32h 2866   2]                    Reserved1 : 0000
[B34h 2868   4]             Proximity Domain : 00000000
[B38h 2872   4]                      Apic ID : FFFFFFFF
[B3Ch 2876   4]        Flags (decoded below) : 00000000
                                     Enabled : 0
[B40h 2880   4]                 Clock Domain : 00000000
[B44h 2884   4]                    Reserved2 : 00000000
[B48h 2888   1]                Subtable Type : 02 [Processor Local x2APIC Affinity]
[B49h 2889   1]                       Length : 18
[B4Ah 2890   2]                    Reserved1 : 0000
[B4Ch 2892   4]             Proximity Domain : 00000000
[B50h 2896   4]                      Apic ID : FFFFFFFF
[B54h 2900   4]        Flags (decoded below) : 00000000
                                     Enabled : 0
[B58h 2904   4]                 Clock Domain : 00000000
[B5Ch 2908   4]                    Reserved2 : 00000000
[B60h 2912   1]                Subtable Type : 02 [Processor Local x2APIC Affinity]
[B61h 2913   1]                       Length : 18
[B62h 2914   2]                    Reserved1 : 0000
[B64h 2916   4]             Proximity Domain : 00000000
[B68h 2920   4]                      Apic ID : FFFFFFFF
[B6Ch 2924   4]        Flags (decoded below) : 00000000
                                     Enabled : 0
[B70h 2928   4]                 Clock Domain : 00000000
[B74h 2932   4]                    Reserved2 : 00000000
[B78h 2936   1]                Subtable Type : 02 [Processor Local x2APIC Affinity]
[B79h 2937   1]                       Length : 18
[B7Ah 2938   2]                    Reserved1 : 0000
[B7Ch 2940   4]             Proximity Domain : 00000000
[B80h 2944   4]                      Apic ID : FFFFFFFF
[B84h 2948   4]        Flags (decoded below) : 00000000
                                     Enabled : 0
[B88h 2952   4]                 Clock Domain : 00000000
[B8Ch 2956   4]                    Reserved2 : 00000000
[B90h 2960   1]                Subtable Type : 02 [Processor Local x2APIC Affinity]
[B91h 2961   1]                       Length : 18
[B92h 2962   2]                    Reserved1 : 0000
[B94h 2964   4]             Proximity Domain : 00000000
[B98h 2968   4]                      Apic ID : FFFFFFFF
[B9Ch 2972   4]        Flags (decoded below) : 00000000
                                     Enabled : 0
[BA0h 2976   4]                 Clock Domain : 00000000
[BA4h 2980   4]                    Reserved2 : 00000000
[BA8h 2984   1]                Subtable Type : 02 [Processor Local x2APIC Affinity]
[BA9h 2985   1]                       Length : 18
[BAAh 2986   2]                    Reserved1 : 0000
[BACh 2988   4]             Proximity Domain : 00000000
[BB0h 2992   4]                      Apic ID : FFFFFFFF
[BB4h 2996   4]        Flags (decoded below) : 00000000
                                     Enabled : 0
[BB8h 3000   4]                 Clock Domain : 00000000
[BBCh 3004   4]                    Reserved2 : 00000000
[BC0h 3008   1]                Subtable Type : 02 [Processor Local x2APIC Affinity]
[BC1h 3009   1]                       Length : 18
[BC2h 3010   2]                    Reserved1 : 0000
[BC4h 3012   4]             Proximity Domain : 00000000
[BC8h 3016   4]                      Apic ID : FFFFFFFF
[BCCh 3020   4]        Flags (decoded below) : 00000000
                                     Enabled : 0
[BD0h 3024   4]                 Clock Domain : 00000000
[BD4h 3028   4]                    Reserved2 : 00000000
[BD8h 3032   1]                Subtable Type : 02 [Processor Local x2APIC Affinity]
[BD9h 3033   1]                       Length : 18
[BDAh 3034   2]                    Reserved1 : 0000
[BDCh 3036   4]             Proximity Domain : 00000000
[BE0h 3040   4]                      Apic ID : FFFFFFFF
[BE4h 3044   4]        Flags (decoded below) : 00000000
                                     Enabled : 0
[BE8h 3048   4]                 Clock Domain : 00000000
[BECh 3052   4]                    Reserved2 : 00000000
[BF0h 3056   1]                Subtable Type : 02 [Processor Local x2APIC Affinity]
[BF1h 3057   1]                       Length : 18
[BF2h 3058   2]                    Reserved1 : 0000
[BF4h 3060   4]             Proximity Domain : 00000000
[BF8h 3064   4]                      Apic ID : FFFFFFFF
[BFCh 3068   4]        Flags (decoded below) : 00000000
                                     Enabled : 0
[C00h 3072   4]                 Clock Domain : 00000000
[C04h 3076   4]                    Reserved2 : 00000000
[C08h 3080   1]                Subtable Type : 02 [Processor Local x2APIC Affinity]
[C09h 3081   1]                       Length : 18
[C0Ah 3082   2]                    Reserved1 : 0000
[C0Ch 3084   4]             Proximity Domain : 00000000
[C10h 3088   4]                      Apic ID : FFFFFFFF
[C14h 3092   4]        Flags (decoded below) : 00000000
                                     Enabled : 0
[C18h 3096   4]                 Clock Domain : 00000000
[C1Ch 3100   4]                    Reserved2 : 00000000
[C20h 3104   1]                Subtable Type : 02 [Processor Local x2APIC Affinity]
[C21h 3105   1]                       Length : 18
[C22h 3106   2]                    Reserved1 : 0000
[C24h 3108   4]             Proximity Domain : 00000000
[C28h 3112   4]                      Apic ID : FFFFFFFF
[C2Ch 3116   4]        Flags (decoded below) : 00000000
                                     Enabled : 0
[C30h 3120   4]                 Clock Domain : 00000000
[C34h 3124   4]                    Reserved2 : 00000000
[C38h 3128   1]                Subtable Type : 02 [Processor Local x2APIC Affinity]
[C39h 3129   1]                       Length : 18
[C3Ah 3130   2]                    Reserved1 : 0000
[C3Ch 3132   4]             Proximity Domain : 00000000
[C40h 3136   4]                      Apic ID : FFFFFFFF
[C44h 3140   4]        Flags (decoded below) : 00000000
                                     Enabled : 0
[C48h 3144   4]                 Clock Domain : 00000000
[C4Ch 3148   4]                    Reserved2 : 00000000
[C50h 3152   1]                Subtable Type : 02 [Processor Local x2APIC Affinity]
[C51h 3153   1]                       Length : 18
[C52h 3154   2]                    Reserved1 : 0000
[C54h 3156   4]             Proximity Domain : 00000000
[C58h 3160   4]                      Apic ID : FFFFFFFF
[C5Ch 3164   4]        Flags (decoded below) : 00000000
                                     Enabled : 0
[C60h 3168   4]                 Clock Domain : 00000000
[C64h 3172   4]                    Reserved2 : 00000000
[C68h 3176   1]                Subtable Type : 02 [Processor Local x2APIC Affinity]
[C69h 3177   1]                       Length : 18
[C6Ah 3178   2]                    Reserved1 : 0000
[C6Ch 3180   4]             Proximity Domain : 00000000
[C70h 3184   4]                      Apic ID : FFFFFFFF
[C74h 3188   4]        Flags (decoded below) : 00000000
                                     Enabled : 0
[C78h 3192   4]                 Clock Domain : 00000000
[C7Ch 3196   4]                    Reserved2 : 00000000
[C80h 3200   1]                Subtable Type : 02 [Processor Local x2APIC Affinity]
[C81h 3201   1]                       Length : 18
[C82h 3202   2]                    Reserved1 : 0000
[C84h 3204   4]             Proximity Domain : 00000000
[C88h 3208   4]                      Apic ID : FFFFFFFF
[C8Ch 3212   4]        Flags (decoded below) : 00000000
                                     Enabled : 0
[C90h 3216   4]                 Clock Domain : 00000000
[C94h 3220   4]                    Reserved2 : 00000000
[C98h 3224   1]                Subtable Type : 02 [Processor Local x2APIC Affinity]
[C99h 3225   1]                       Length : 18
[C9Ah 3226   2]                    Reserved1 : 0000
[C9Ch 3228   4]             Proximity Domain : 00000000
[CA0h 3232   4]                      Apic ID : FFFFFFFF
[CA4h 3236   4]        Flags (decoded below) : 00000000
                                     Enabled : 0
[CA8h 3240   4]                 Clock Domain : 00000000
[CACh 3244   4]                    Reserved2 : 00000000
[CB0h 3248   1]                Subtable Type : 02 [Processor Local x2APIC Affinity]
[CB1h 3249   1]                       Length : 18
[CB2h 3250   2]                    Reserved1 : 0000
[CB4h 3252   4]             Proximity Domain : 00000000
[CB8h 3256   4]                      Apic ID : FFFFFFFF
[CBCh 3260   4]        Flags (decoded below) : 00000000
                                     Enabled : 0
[CC0h 3264   4]                 Clock Domain : 00000000
[CC4h 3268   4]                    Reserved2 : 00000000
[CC8h 3272   1]                Subtable Type : 02 [Processor Local x2APIC Affinity]
[CC9h 3273   1]                       Length : 18
[CCAh 3274   2]                    Reserved1 : 0000
[CCCh 3276   4]             Proximity Domain : 00000000
[CD0h 3280   4]                      Apic ID : FFFFFFFF
[CD4h 3284   4]        Flags (decoded below) : 00000000
                                     Enabled : 0
[CD8h 3288   4]                 Clock Domain : 00000000
[CDCh 3292   4]                    Reserved2 : 00000000
[CE0h 3296   1]                Subtable Type : 02 [Processor Local x2APIC Affinity]
[CE1h 3297   1]                       Length : 18
[CE2h 3298   2]                    Reserved1 : 0000
[CE4h 3300   4]             Proximity Domain : 00000000
[CE8h 3304   4]                      Apic ID : FFFFFFFF
[CECh 3308   4]        Flags (decoded below) : 00000000
                                     Enabled : 0
[CF0h 3312   4]                 Clock Domain : 00000000
[CF4h 3316   4]                    Reserved2 : 00000000
[CF8h 3320   1]                Subtable Type : 02 [Processor Local x2APIC Affinity]
[CF9h 3321   1]                       Length : 18
[CFAh 3322   2]                    Reserved1 : 0000
[CFCh 3324   4]             Proximity Domain : 00000000
[D00h 3328   4]                      Apic ID : FFFFFFFF
[D04h 3332   4]        Flags (decoded below) : 00000000
                                     Enabled : 0
[D08h 3336   4]                 Clock Domain : 00000000
[D0Ch 3340   4]                    Reserved2 : 00000000
[D10h 3344   1]                Subtable Type : 02 [Processor Local x2APIC Affinity]
[D11h 3345   1]                       Length : 18
[D12h 3346   2]                    Reserved1 : 0000
[D14h 3348   4]             Proximity Domain : 00000000
[D18h 3352   4]                      Apic ID : FFFFFFFF
[D1Ch 3356   4]        Flags (decoded below) : 00000000
                                     Enabled : 0
[D20h 3360   4]                 Clock Domain : 00000000
[D24h 3364   4]                    Reserved2 : 00000000
[D28h 3368   1]                Subtable Type : 02 [Processor Local x2APIC Affinity]
[D29h 3369   1]                       Length : 18
[D2Ah 3370   2]                    Reserved1 : 0000
[D2Ch 3372   4]             Proximity Domain : 00000000
[D30h 3376   4]                      Apic ID : FFFFFFFF
[D34h 3380   4]        Flags (decoded below) : 00000000
                                     Enabled : 0
[D38h 3384   4]                 Clock Domain : 00000000
[D3Ch 3388   4]                    Reserved2 : 00000000
[D40h 3392   1]                Subtable Type : 02 [Processor Local x2APIC Affinity]
[D41h 3393   1]                       Length : 18
[D42h 3394   2]                    Reserved1 : 0000
[D44h 3396   4]             Proximity Domain : 00000000
[D48h 3400   4]                      Apic ID : FFFFFFFF
[D4Ch 3404   4]        Flags (decoded below) : 00000000
                                     Enabled : 0
[D50h 3408   4]                 Clock Domain : 00000000
[D54h 3412   4]                    Reserved2 : 00000000
[D58h 3416   1]                Subtable Type : 02 [Processor Local x2APIC Affinity]
[D59h 3417   1]                       Length : 18
[D5Ah 3418   2]                    Reserved1 : 0000
[D5Ch 3420   4]             Proximity Domain : 00000000
[D60h 3424   4]                      Apic ID : FFFFFFFF
[D64h 3428   4]        Flags (decoded below) : 00000000
                                     Enabled : 0
[D68h 3432   4]                 Clock Domain : 00000000
[D6Ch 3436   4]                    Reserved2 : 00000000
[D70h 3440   1]                Subtable Type : 02 [Processor Local x2APIC Affinity]
[D71h 3441   1]                       Length : 18
[D72h 3442   2]                    Reserved1 : 0000
[D74h 3444   4]             Proximity Domain : 00000000
[D78h 3448   4]                      Apic ID : FFFFFFFF
[D7Ch 3452   4]        Flags (decoded below) : 00000000
                                     Enabled : 0
[D80h 3456   4]                 Clock Domain : 00000000
[D84h 3460   4]                    Reserved2 : 00000000
[D88h 3464   1]                Subtable Type : 02 [Processor Local x2APIC Affinity]
[D89h 3465   1]                       Length : 18
[D8Ah 3466   2]                    Reserved1 : 0000
[D8Ch 3468   4]             Proximity Domain : 00000000
[D90h 3472   4]                      Apic ID : FFFFFFFF
[D94h 3476   4]        Flags (decoded below) : 00000000
                                     Enabled : 0
[D98h 3480   4]                 Clock Domain : 00000000
[D9Ch 3484   4]                    Reserved2 : 00000000
[DA0h 3488   1]                Subtable Type : 02 [Processor Local x2APIC Affinity]
[DA1h 3489   1]                       Length : 18
[DA2h 3490   2]                    Reserved1 : 0000
[DA4h 3492   4]             Proximity Domain : 00000000
[DA8h 3496   4]                      Apic ID : FFFFFFFF
[DACh 3500   4]        Flags (decoded below) : 00000000
                                     Enabled : 0
[DB0h 3504   4]                 Clock Domain : 00000000
[DB4h 3508   4]                    Reserved2 : 00000000
[DB8h 3512   1]                Subtable Type : 02 [Processor Local x2APIC Affinity]
[DB9h 3513   1]                       Length : 18
[DBAh 3514   2]                    Reserved1 : 0000
[DBCh 3516   4]             Proximity Domain : 00000000
[DC0h 3520   4]                      Apic ID : FFFFFFFF
[DC4h 3524   4]        Flags (decoded below) : 00000000
                                     Enabled : 0
[DC8h 3528   4]                 Clock Domain : 00000000
[DCCh 3532   4]                    Reserved2 : 00000000
[DD0h 3536   1]                Subtable Type : 02 [Processor Local x2APIC Affinity]
[DD1h 3537   1]                       Length : 18
[DD2h 3538   2]                    Reserved1 : 0000
[DD4h 3540   4]             Proximity Domain : 00000000
[DD8h 3544   4]                      Apic ID : FFFFFFFF
[DDCh 3548   4]        Flags (decoded below) : 00000000
                                     Enabled : 0
[DE0h 3552   4]                 Clock Domain : 00000000
[DE4h 3556   4]                    Reserved2 : 00000000
[DE8h 3560   1]                Subtable Type : 02 [Processor Local x2APIC Affinity]
[DE9h 3561   1]                       Length : 18
[DEAh 3562   2]                    Reserved1 : 0000
[DECh 3564   4]             Proximity Domain : 00000000
[DF0h 3568   4]                      Apic ID : FFFFFFFF
[DF4h 3572   4]        Flags (decoded below) : 00000000
                                     Enabled : 0
[DF8h 3576   4]                 Clock Domain : 00000000
[DFCh 3580   4]                    Reserved2 : 00000000
[E00h 3584   1]                Subtable Type : 02 [Processor Local x2APIC Affinity]
[E01h 3585   1]                       Length : 18
[E02h 3586   2]                    Reserved1 : 0000
[E04h 3588   4]             Proximity Domain : 00000000
[E08h 3592   4]                      Apic ID : FFFFFFFF
[E0Ch 3596   4]        Flags (decoded below) : 00000000
                                     Enabled : 0
[E10h 3600   4]                 Clock Domain : 00000000
[E14h 3604   4]                    Reserved2 : 00000000
[E18h 3608   1]                Subtable Type : 02 [Processor Local x2APIC Affinity]
[E19h 3609   1]                       Length : 18
[E1Ah 3610   2]                    Reserved1 : 0000
[E1Ch 3612   4]             Proximity Domain : 00000000
[E20h 3616   4]                      Apic ID : FFFFFFFF
[E24h 3620   4]        Flags (decoded below) : 00000000
                                     Enabled : 0
[E28h 3624   4]                 Clock Domain : 00000000
[E2Ch 3628   4]                    Reserved2 : 00000000
[E30h 3632   1]                Subtable Type : 02 [Processor Local x2APIC Affinity]
[E31h 3633   1]                       Length : 18
[E32h 3634   2]                    Reserved1 : 0000
[E34h 3636   4]             Proximity Domain : 00000000
[E38h 3640   4]                      Apic ID : FFFFFFFF
[E3Ch 3644   4]        Flags (decoded below) : 00000000
                                     Enabled : 0
[E40h 3648   4]                 Clock Domain : 00000000
[E44h 3652   4]                    Reserved2 : 00000000
[E48h 3656   1]                Subtable Type : 02 [Processor Local x2APIC Affinity]
[E49h 3657   1]                       Length : 18
[E4Ah 3658   2]                    Reserved1 : 0000
[E4Ch 3660   4]             Proximity Domain : 00000000
[E50h 3664   4]                      Apic ID : FFFFFFFF
[E54h 3668   4]        Flags (decoded below) : 00000000
                                     Enabled : 0
[E58h 3672   4]                 Clock Domain : 00000000
[E5Ch 3676   4]                    Reserved2 : 00000000
[E60h 3680   1]                Subtable Type : 02 [Processor Local x2APIC Affinity]
[E61h 3681   1]                       Length : 18
[E62h 3682   2]                    Reserved1 : 0000
[E64h 3684   4]             Proximity Domain : 00000000
[E68h 3688   4]                      Apic ID : FFFFFFFF
[E6Ch 3692   4]        Flags (decoded below) : 00000000
                                     Enabled : 0
[E70h 3696   4]                 Clock Domain : 00000000
[E74h 3700   4]                    Reserved2 : 00000000
[E78h 3704   1]                Subtable Type : 02 [Processor Local x2APIC Affinity]
[E79h 3705   1]                       Length : 18
[E7Ah 3706   2]                    Reserved1 : 0000
[E7Ch 3708   4]             Proximity Domain : 00000000
[E80h 3712   4]                      Apic ID : FFFFFFFF
[E84h 3716   4]        Flags (decoded below) : 00000000
                                     Enabled : 0
[E88h 3720   4]                 Clock Domain : 00000000
[E8Ch 3724   4]                    Reserved2 : 00000000
[E90h 3728   1]                Subtable Type : 02 [Processor Local x2APIC Affinity]
[E91h 3729   1]                       Length : 18
[E92h 3730   2]                    Reserved1 : 0000
[E94h 3732   4]             Proximity Domain : 00000000
[E98h 3736   4]                      Apic ID : FFFFFFFF
[E9Ch 3740   4]        Flags (decoded below) : 00000000
                                     Enabled : 0
[EA0h 3744   4]                 Clock Domain : 00000000
[EA4h 3748   4]                    Reserved2 : 00000000
[EA8h 3752   1]                Subtable Type : 02 [Processor Local x2APIC Affinity]
[EA9h 3753   1]                       Length : 18
[EAAh 3754   2]                    Reserved1 : 0000
[EACh 3756   4]             Proximity Domain : 00000000
[EB0h 3760   4]                      Apic ID : FFFFFFFF
[EB4h 3764   4]        Flags (decoded below) : 00000000
                                     Enabled : 0
[EB8h 3768   4]                 Clock Domain : 00000000
[EBCh 3772   4]                    Reserved2 : 00000000
[EC0h 3776   1]                Subtable Type : 02 [Processor Local x2APIC Affinity]
[EC1h 3777   1]                       Length : 18
[EC2h 3778   2]                    Reserved1 : 0000
[EC4h 3780   4]             Proximity Domain : 00000000
[EC8h 3784   4]                      Apic ID : FFFFFFFF
[ECCh 3788   4]        Flags (decoded below) : 00000000
                                     Enabled : 0
[ED0h 3792   4]                 Clock Domain : 00000000
[ED4h 3796   4]                    Reserved2 : 00000000
[ED8h 3800   1]                Subtable Type : 02 [Processor Local x2APIC Affinity]
[ED9h 3801   1]                       Length : 18
[EDAh 3802   2]                    Reserved1 : 0000
[EDCh 3804   4]             Proximity Domain : 00000000
[EE0h 3808   4]                      Apic ID : FFFFFFFF
[EE4h 3812   4]        Flags (decoded below) : 00000000
                                     Enabled : 0
[EE8h 3816   4]                 Clock Domain : 00000000
[EECh 3820   4]                    Reserved2 : 00000000
[EF0h 3824   1]                Subtable Type : 02 [Processor Local x2APIC Affinity]
[EF1h 3825   1]                       Length : 18
[EF2h 3826   2]                    Reserved1 : 0000
[EF4h 3828   4]             Proximity Domain : 00000000
[EF8h 3832   4]                      Apic ID : FFFFFFFF
[EFCh 3836   4]        Flags (decoded below) : 00000000
                                     Enabled : 0
[F00h 3840   4]                 Clock Domain : 00000000
[F04h 3844   4]                    Reserved2 : 00000000
[F08h 3848   1]                Subtable Type : 02 [Processor Local x2APIC Affinity]
[F09h 3849   1]                       Length : 18
[F0Ah 3850   2]                    Reserved1 : 0000
[F0Ch 3852   4]             Proximity Domain : 00000000
[F10h 3856   4]                      Apic ID : FFFFFFFF
[F14h 3860   4]        Flags (decoded below) : 00000000
                                     Enabled : 0
[F18h 3864   4]                 Clock Domain : 00000000
[F1Ch 3868   4]                    Reserved2 : 00000000
[F20h 3872   1]                Subtable Type : 02 [Processor Local x2APIC Affinity]
[F21h 3873   1]                       Length : 18
[F22h 3874   2]                    Reserved1 : 0000
[F24h 3876   4]             Proximity Domain : 00000000
[F28h 3880   4]                      Apic ID : FFFFFFFF
[F2Ch 3884   4]        Flags (decoded below) : 00000000
                                     Enabled : 0
[F30h 3888   4]                 Clock Domain : 00000000
[F34h 3892   4]                    Reserved2 : 00000000
[F38h 3896   1]                Subtable Type : 02 [Processor Local x2APIC Affinity]
[F39h 3897   1]                       Length : 18
[F3Ah 3898   2]                    Reserved1 : 0000
[F3Ch 3900   4]             Proximity Domain : 00000000
[F40h 3904   4]                      Apic ID : FFFFFFFF
[F44h 3908   4]        Flags (decoded below) : 00000000
                                     Enabled : 0
[F48h 3912   4]                 Clock Domain : 00000000
[F4Ch 3916   4]                    Reserved2 : 00000000
[F50h 3920   1]                Subtable Type : 02 [Processor Local x2APIC Affinity]
[F51h 3921   1]                       Length : 18
[F52h 3922   2]                    Reserved1 : 0000
[F54h 3924   4]             Proximity Domain : 00000000
[F58h 3928   4]                      Apic ID : FFFFFFFF
[F5Ch 3932   4]        Flags (decoded below) : 00000000
                                     Enabled : 0
[F60h 3936   4]                 Clock Domain : 00000000
[F64h 3940   4]                    Reserved2 : 00000000
[F68h 3944   1]                Subtable Type : 02 [Processor Local x2APIC Affinity]
[F69h 3945   1]                       Length : 18
[F6Ah 3946   2]                    Reserved1 : 0000
[F6Ch 3948   4]             Proximity Domain : 00000000
[F70h 3952   4]                      Apic ID : FFFFFFFF
[F74h 3956   4]        Flags (decoded below) : 00000000
                                     Enabled : 0
[F78h 3960   4]                 Clock Domain : 00000000
[F7Ch 3964   4]                    Reserved2 : 00000000
[F80h 3968   1]                Subtable Type : 02 [Processor Local x2APIC Affinity]
[F81h 3969   1]                       Length : 18
[F82h 3970   2]                    Reserved1 : 0000
[F84h 3972   4]             Proximity Domain : 00000000
[F88h 3976   4]                      Apic ID : FFFFFFFF
[F8Ch 3980   4]        Flags (decoded below) : 00000000
                                     Enabled : 0
[F90h 3984   4]                 Clock Domain : 00000000
[F94h 3988   4]                    Reserved2 : 00000000
[F98h 3992   1]                Subtable Type : 02 [Processor Local x2APIC Affinity]
[F99h 3993   1]                       Length : 18
[F9Ah 3994   2]                    Reserved1 : 0000
[F9Ch 3996   4]             Proximity Domain : 00000000
[FA0h 4000   4]                      Apic ID : FFFFFFFF
[FA4h 4004   4]        Flags (decoded below) : 00000000
                                     Enabled : 0
[FA8h 4008   4]                 Clock Domain : 00000000
[FACh 4012   4]                    Reserved2 : 00000000
[FB0h 4016   1]                Subtable Type : 02 [Processor Local x2APIC Affinity]
[FB1h 4017   1]                       Length : 18
[FB2h 4018   2]                    Reserved1 : 0000
[FB4h 4020   4]             Proximity Domain : 00000000
[FB8h 4024   4]                      Apic ID : FFFFFFFF
[FBCh 4028   4]        Flags (decoded below) : 00000000
                                     Enabled : 0
[FC0h 4032   4]                 Clock Domain : 00000000
[FC4h 4036   4]                    Reserved2 : 00000000
[FC8h 4040   1]                Subtable Type : 02 [Processor Local x2APIC Affinity]
[FC9h 4041   1]                       Length : 18
[FCAh 4042   2]                    Reserved1 : 0000
[FCCh 4044   4]             Proximity Domain : 00000000
[FD0h 4048   4]                      Apic ID : FFFFFFFF
[FD4h 4052   4]        Flags (decoded below) : 00000000
                                     Enabled : 0
[FD8h 4056   4]                 Clock Domain : 00000000
[FDCh 4060   4]                    Reserved2 : 00000000
[FE0h 4064   1]                Subtable Type : 02 [Processor Local x2APIC Affinity]
[FE1h 4065   1]                       Length : 18
[FE2h 4066   2]                    Reserved1 : 0000
[FE4h 4068   4]             Proximity Domain : 00000000
[FE8h 4072   4]                      Apic ID : FFFFFFFF
[FECh 4076   4]        Flags (decoded below) : 00000000
                                     Enabled : 0
[FF0h 4080   4]                 Clock Domain : 00000000
[FF4h 4084   4]                    Reserved2 : 00000000
[FF8h 4088   1]                Subtable Type : 02 [Processor Local x2APIC Affinity]
[FF9h 4089   1]                       Length : 18
[FFAh 4090   2]                    Reserved1 : 0000
[FFCh 4092   4]             Proximity Domain : 00000000
[1000h 4096   4]                      Apic ID : FFFFFFFF
[1004h 4100   4]        Flags (decoded below) : 00000000
                                     Enabled : 0
[1008h 4104   4]                 Clock Domain : 00000000
[100Ch 4108   4]                    Reserved2 : 00000000
[1010h 4112   1]                Subtable Type : 02 [Processor Local x2APIC Affinity]
[1011h 4113   1]                       Length : 18
[1012h 4114   2]                    Reserved1 : 0000
[1014h 4116   4]             Proximity Domain : 00000000
[1018h 4120   4]                      Apic ID : FFFFFFFF
[101Ch 4124   4]        Flags (decoded below) : 00000000
                                     Enabled : 0
[1020h 4128   4]                 Clock Domain : 00000000
[1024h 4132   4]                    Reserved2 : 00000000
[1028h 4136   1]                Subtable Type : 02 [Processor Local x2APIC Affinity]
[1029h 4137   1]                       Length : 18
[102Ah 4138   2]                    Reserved1 : 0000
[102Ch 4140   4]             Proximity Domain : 00000000
[1030h 4144   4]                      Apic ID : FFFFFFFF
[1034h 4148   4]        Flags (decoded below) : 00000000
                                     Enabled : 0
[1038h 4152   4]                 Clock Domain : 00000000
[103Ch 4156   4]                    Reserved2 : 00000000
[1040h 4160   1]                Subtable Type : 02 [Processor Local x2APIC Affinity]
[1041h 4161   1]                       Length : 18
[1042h 4162   2]                    Reserved1 : 0000
[1044h 4164   4]             Proximity Domain : 00000000
[1048h 4168   4]                      Apic ID : FFFFFFFF
[104Ch 4172   4]        Flags (decoded below) : 00000000
                                     Enabled : 0
[1050h 4176   4]                 Clock Domain : 00000000
[1054h 4180   4]                    Reserved2 : 00000000
[1058h 4184   1]                Subtable Type : 02 [Processor Local x2APIC Affinity]
[1059h 4185   1]                       Length : 18
[105Ah 4186   2]                    Reserved1 : 0000
[105Ch 4188   4]             Proximity Domain : 00000000
[1060h 4192   4]                      Apic ID : FFFFFFFF
[1064h 4196   4]        Flags (decoded below) : 00000000
                                     Enabled : 0
[1068h 4200   4]                 Clock Domain : 00000000
[106Ch 4204   4]                    Reserved2 : 00000000
[1070h 4208   1]                Subtable Type : 02 [Processor Local x2APIC Affinity]
[1071h 4209   1]                       Length : 18
[1072h 4210   2]                    Reserved1 : 0000
[1074h 4212   4]             Proximity Domain : 00000000
[1078h 4216   4]                      Apic ID : FFFFFFFF
[107Ch 4220   4]        Flags (decoded below) : 00000000
                                     Enabled : 0
[1080h 4224   4]                 Clock Domain : 00000000
[1084h 4228   4]                    Reserved2 : 00000000
[1088h 4232   1]                Subtable Type : 02 [Processor Local x2APIC Affinity]
[1089h 4233   1]                       Length : 18
[108Ah 4234   2]                    Reserved1 : 0000
[108Ch 4236   4]             Proximity Domain : 00000000
[1090h 4240   4]                      Apic ID : FFFFFFFF
[1094h 4244   4]        Flags (decoded below) : 00000000
                                     Enabled : 0
[1098h 4248   4]                 Clock Domain : 00000000
[109Ch 4252   4]                    Reserved2 : 00000000
[10A0h 4256   1]                Subtable Type : 02 [Processor Local x2APIC Affinity]
[10A1h 4257   1]                       Length : 18
[10A2h 4258   2]                    Reserved1 : 0000
[10A4h 4260   4]             Proximity Domain : 00000000
[10A8h 4264   4]                      Apic ID : FFFFFFFF
[10ACh 4268   4]        Flags (decoded below) : 00000000
                                     Enabled : 0
[10B0h 4272   4]                 Clock Domain : 00000000
[10B4h 4276   4]                    Reserved2 : 00000000
[10B8h 4280   1]                Subtable Type : 02 [Processor Local x2APIC Affinity]
[10B9h 4281   1]                       Length : 18
[10BAh 4282   2]                    Reserved1 : 0000
[10BCh 4284   4]             Proximity Domain : 00000000
[10C0h 4288   4]                      Apic ID : FFFFFFFF
[10C4h 4292   4]        Flags (decoded below) : 00000000
                                     Enabled : 0
[10C8h 4296   4]                 Clock Domain : 00000000
[10CCh 4300   4]                    Reserved2 : 00000000
[10D0h 4304   1]                Subtable Type : 02 [Processor Local x2APIC Affinity]
[10D1h 4305   1]                       Length : 18
[10D2h 4306   2]                    Reserved1 : 0000
[10D4h 4308   4]             Proximity Domain : 00000000
[10D8h 4312   4]                      Apic ID : FFFFFFFF
[10DCh 4316   4]        Flags (decoded below) : 00000000
                                     Enabled : 0
[10E0h 4320   4]                 Clock Domain : 00000000
[10E4h 4324   4]                    Reserved2 : 00000000
[10E8h 4328   1]                Subtable Type : 02 [Processor Local x2APIC Affinity]
[10E9h 4329   1]                       Length : 18
[10EAh 4330   2]                    Reserved1 : 0000
[10ECh 4332   4]             Proximity Domain : 00000000
[10F0h 4336   4]                      Apic ID : FFFFFFFF
[10F4h 4340   4]        Flags (decoded below) : 00000000
                                     Enabled : 0
[10F8h 4344   4]                 Clock Domain : 00000000
[10FCh 4348   4]                    Reserved2 : 00000000
[1100h 4352   1]                Subtable Type : 02 [Processor Local x2APIC Affinity]
[1101h 4353   1]                       Length : 18
[1102h 4354   2]                    Reserved1 : 0000
[1104h 4356   4]             Proximity Domain : 00000000
[1108h 4360   4]                      Apic ID : FFFFFFFF
[110Ch 4364   4]        Flags (decoded below) : 00000000
                                     Enabled : 0
[1110h 4368   4]                 Clock Domain : 00000000
[1114h 4372   4]                    Reserved2 : 00000000
[1118h 4376   1]                Subtable Type : 02 [Processor Local x2APIC Affinity]
[1119h 4377   1]                       Length : 18
[111Ah 4378   2]                    Reserved1 : 0000
[111Ch 4380   4]             Proximity Domain : 00000000
[1120h 4384   4]                      Apic ID : FFFFFFFF
[1124h 4388   4]        Flags (decoded below) : 00000000
                                     Enabled : 0
[1128h 4392   4]                 Clock Domain : 00000000
[112Ch 4396   4]                    Reserved2 : 00000000
[1130h 4400   1]                Subtable Type : 02 [Processor Local x2APIC Affinity]
[1131h 4401   1]                       Length : 18
[1132h 4402   2]                    Reserved1 : 0000
[1134h 4404   4]             Proximity Domain : 00000000
[1138h 4408   4]                      Apic ID : FFFFFFFF
[113Ch 4412   4]        Flags (decoded below) : 00000000
                                     Enabled : 0
[1140h 4416   4]                 Clock Domain : 00000000
[1144h 4420   4]                    Reserved2 : 00000000
[1148h 4424   1]                Subtable Type : 02 [Processor Local x2APIC Affinity]
[1149h 4425   1]                       Length : 18
[114Ah 4426   2]                    Reserved1 : 0000
[114Ch 4428   4]             Proximity Domain : 00000000
[1150h 4432   4]                      Apic ID : FFFFFFFF
[1154h 4436   4]        Flags (decoded below) : 00000000
                                     Enabled : 0
[1158h 4440   4]                 Clock Domain : 00000000
[115Ch 4444   4]                    Reserved2 : 00000000
[1160h 4448   1]                Subtable Type : 02 [Processor Local x2APIC Affinity]
[1161h 4449   1]                       Length : 18
[1162h 4450   2]                    Reserved1 : 0000
[1164h 4452   4]             Proximity Domain : 00000000
[1168h 4456   4]                      Apic ID : FFFFFFFF
[116Ch 4460   4]        Flags (decoded below) : 00000000
                                     Enabled : 0
[1170h 4464   4]                 Clock Domain : 00000000
[1174h 4468   4]                    Reserved2 : 00000000
[1178h 4472   1]                Subtable Type : 02 [Processor Local x2APIC Affinity]
[1179h 4473   1]                       Length : 18
[117Ah 4474   2]                    Reserved1 : 0000
[117Ch 4476   4]             Proximity Domain : 00000000
[1180h 4480   4]                      Apic ID : FFFFFFFF
[1184h 4484   4]        Flags (decoded below) : 00000000
                                     Enabled : 0
[1188h 4488   4]                 Clock Domain : 00000000
[118Ch 4492   4]                    Reserved2 : 00000000
[1190h 4496   1]                Subtable Type : 02 [Processor Local x2APIC Affinity]
[1191h 4497   1]                       Length : 18
[1192h 4498   2]                    Reserved1 : 0000
[1194h 4500   4]             Proximity Domain : 00000000
[1198h 4504   4]                      Apic ID : FFFFFFFF
[119Ch 4508   4]        Flags (decoded below) : 00000000
                                     Enabled : 0
[11A0h 4512   4]                 Clock Domain : 00000000
[11A4h 4516   4]                    Reserved2 : 00000000
[11A8h 4520   1]                Subtable Type : 02 [Processor Local x2APIC Affinity]
[11A9h 4521   1]                       Length : 18
[11AAh 4522   2]                    Reserved1 : 0000
[11ACh 4524   4]             Proximity Domain : 00000000
[11B0h 4528   4]                      Apic ID : FFFFFFFF
[11B4h 4532   4]        Flags (decoded below) : 00000000
                                     Enabled : 0
[11B8h 4536   4]                 Clock Domain : 00000000
[11BCh 4540   4]                    Reserved2 : 00000000
[11C0h 4544   1]                Subtable Type : 02 [Processor Local x2APIC Affinity]
[11C1h 4545   1]                       Length : 18
[11C2h 4546   2]                    Reserved1 : 0000
[11C4h 4548   4]             Proximity Domain : 00000000
[11C8h 4552   4]                      Apic ID : FFFFFFFF
[11CCh 4556   4]        Flags (decoded below) : 00000000
                                     Enabled : 0
[11D0h 4560   4]                 Clock Domain : 00000000
[11D4h 4564   4]                    Reserved2 : 00000000
[11D8h 4568   1]                Subtable Type : 02 [Processor Local x2APIC Affinity]
[11D9h 4569   1]                       Length : 18
[11DAh 4570   2]                    Reserved1 : 0000
[11DCh 4572   4]             Proximity Domain : 00000000
[11E0h 4576   4]                      Apic ID : FFFFFFFF
[11E4h 4580   4]        Flags (decoded below) : 00000000
                                     Enabled : 0
[11E8h 4584   4]                 Clock Domain : 00000000
[11ECh 4588   4]                    Reserved2 : 00000000
[11F0h 4592   1]                Subtable Type : 02 [Processor Local x2APIC Affinity]
[11F1h 4593   1]                       Length : 18
[11F2h 4594   2]                    Reserved1 : 0000
[11F4h 4596   4]             Proximity Domain : 00000000
[11F8h 4600   4]                      Apic ID : FFFFFFFF
[11FCh 4604   4]        Flags (decoded below) : 00000000
                                     Enabled : 0
[1200h 4608   4]                 Clock Domain : 00000000
[1204h 4612   4]                    Reserved2 : 00000000
[1208h 4616   1]                Subtable Type : 02 [Processor Local x2APIC Affinity]
[1209h 4617   1]                       Length : 18
[120Ah 4618   2]                    Reserved1 : 0000
[120Ch 4620   4]             Proximity Domain : 00000000
[1210h 4624   4]                      Apic ID : FFFFFFFF
[1214h 4628   4]        Flags (decoded below) : 00000000
                                     Enabled : 0
[1218h 4632   4]                 Clock Domain : 00000000
[121Ch 4636   4]                    Reserved2 : 00000000
[1220h 4640   1]                Subtable Type : 02 [Processor Local x2APIC Affinity]
[1221h 4641   1]                       Length : 18
[1222h 4642   2]                    Reserved1 : 0000
[1224h 4644   4]             Proximity Domain : 00000000
[1228h 4648   4]                      Apic ID : FFFFFFFF
[122Ch 4652   4]        Flags (decoded below) : 00000000
                                     Enabled : 0
[1230h 4656   4]                 Clock Domain : 00000000
[1234h 4660   4]                    Reserved2 : 00000000
[1238h 4664   1]                Subtable Type : 02 [Processor Local x2APIC Affinity]
[1239h 4665   1]                       Length : 18
[123Ah 4666   2]                    Reserved1 : 0000
[123Ch 4668   4]             Proximity Domain : 00000000
[1240h 4672   4]                      Apic ID : FFFFFFFF
[1244h 4676   4]        Flags (decoded below) : 00000000
                                     Enabled : 0
[1248h 4680   4]                 Clock Domain : 00000000
[124Ch 4684   4]                    Reserved2 : 00000000
[1250h 4688   1]                Subtable Type : 02 [Processor Local x2APIC Affinity]
[1251h 4689   1]                       Length : 18
[1252h 4690   2]                    Reserved1 : 0000
[1254h 4692   4]             Proximity Domain : 00000000
[1258h 4696   4]                      Apic ID : FFFFFFFF
[125Ch 4700   4]        Flags (decoded below) : 00000000
                                     Enabled : 0
[1260h 4704   4]                 Clock Domain : 00000000
[1264h 4708   4]                    Reserved2 : 00000000
[1268h 4712   1]                Subtable Type : 02 [Processor Local x2APIC Affinity]
[1269h 4713   1]                       Length : 18
[126Ah 4714   2]                    Reserved1 : 0000
[126Ch 4716   4]             Proximity Domain : 00000000
[1270h 4720   4]                      Apic ID : FFFFFFFF
[1274h 4724   4]        Flags (decoded below) : 00000000
                                     Enabled : 0
[1278h 4728   4]                 Clock Domain : 00000000
[127Ch 4732   4]                    Reserved2 : 00000000
[1280h 4736   1]                Subtable Type : 02 [Processor Local x2APIC Affinity]
[1281h 4737   1]                       Length : 18
[1282h 4738   2]                    Reserved1 : 0000
[1284h 4740   4]             Proximity Domain : 00000000
[1288h 4744   4]                      Apic ID : FFFFFFFF
[128Ch 4748   4]        Flags (decoded below) : 00000000
                                     Enabled : 0
[1290h 4752   4]                 Clock Domain : 00000000
[1294h 4756   4]                    Reserved2 : 00000000
[1298h 4760   1]                Subtable Type : 02 [Processor Local x2APIC Affinity]
[1299h 4761   1]                       Length : 18
[129Ah 4762   2]                    Reserved1 : 0000
[129Ch 4764   4]             Proximity Domain : 00000000
[12A0h 4768   4]                      Apic ID : FFFFFFFF
[12A4h 4772   4]        Flags (decoded below) : 00000000
                                     Enabled : 0
[12A8h 4776   4]                 Clock Domain : 00000000
[12ACh 4780   4]                    Reserved2 : 00000000
[12B0h 4784   1]                Subtable Type : 02 [Processor Local x2APIC Affinity]
[12B1h 4785   1]                       Length : 18
[12B2h 4786   2]                    Reserved1 : 0000
[12B4h 4788   4]             Proximity Domain : 00000000
[12B8h 4792   4]                      Apic ID : FFFFFFFF
[12BCh 4796   4]        Flags (decoded below) : 00000000
                                     Enabled : 0
[12C0h 4800   4]                 Clock Domain : 00000000
[12C4h 4804   4]                    Reserved2 : 00000000
[12C8h 4808   1]                Subtable Type : 02 [Processor Local x2APIC Affinity]
[12C9h 4809   1]                       Length : 18
[12CAh 4810   2]                    Reserved1 : 0000
[12CCh 4812   4]             Proximity Domain : 00000000
[12D0h 4816   4]                      Apic ID : FFFFFFFF
[12D4h 4820   4]        Flags (decoded below) : 00000000
                                     Enabled : 0
[12D8h 4824   4]                 Clock Domain : 00000000
[12DCh 4828   4]                    Reserved2 : 00000000
[12E0h 4832   1]                Subtable Type : 02 [Processor Local x2APIC Affinity]
[12E1h 4833   1]                       Length : 18
[12E2h 4834   2]                    Reserved1 : 0000
[12E4h 4836   4]             Proximity Domain : 00000000
[12E8h 4840   4]                      Apic ID : FFFFFFFF
[12ECh 4844   4]        Flags (decoded below) : 00000000
                                     Enabled : 0
[12F0h 4848   4]                 Clock Domain : 00000000
[12F4h 4852   4]                    Reserved2 : 00000000
[12F8h 4856   1]                Subtable Type : 02 [Processor Local x2APIC Affinity]
[12F9h 4857   1]                       Length : 18
[12FAh 4858   2]                    Reserved1 : 0000
[12FCh 4860   4]             Proximity Domain : 00000000
[1300h 4864   4]                      Apic ID : FFFFFFFF
[1304h 4868   4]        Flags (decoded below) : 00000000
                                     Enabled : 0
[1308h 4872   4]                 Clock Domain : 00000000
[130Ch 4876   4]                    Reserved2 : 00000000
[1310h 4880   1]                Subtable Type : 02 [Processor Local x2APIC Affinity]
[1311h 4881   1]                       Length : 18
[1312h 4882   2]                    Reserved1 : 0000
[1314h 4884   4]             Proximity Domain : 00000000
[1318h 4888   4]                      Apic ID : FFFFFFFF
[131Ch 4892   4]        Flags (decoded below) : 00000000
                                     Enabled : 0
[1320h 4896   4]                 Clock Domain : 00000000
[1324h 4900   4]                    Reserved2 : 00000000
[1328h 4904   1]                Subtable Type : 02 [Processor Local x2APIC Affinity]
[1329h 4905   1]                       Length : 18
[132Ah 4906   2]                    Reserved1 : 0000
[132Ch 4908   4]             Proximity Domain : 00000000
[1330h 4912   4]                      Apic ID : FFFFFFFF
[1334h 4916   4]        Flags (decoded below) : 00000000
                                     Enabled : 0
[1338h 4920   4]                 Clock Domain : 00000000
[133Ch 4924   4]                    Reserved2 : 00000000
[1340h 4928   1]                Subtable Type : 02 [Processor Local x2APIC Affinity]
[1341h 4929   1]                       Length : 18
[1342h 4930   2]                    Reserved1 : 0000
[1344h 4932   4]             Proximity Domain : 00000000
[1348h 4936   4]                      Apic ID : FFFFFFFF
[134Ch 4940   4]        Flags (decoded below) : 00000000
                                     Enabled : 0
[1350h 4944   4]                 Clock Domain : 00000000
[1354h 4948   4]                    Reserved2 : 00000000
[1358h 4952   1]                Subtable Type : 02 [Processor Local x2APIC Affinity]
[1359h 4953   1]                       Length : 18
[135Ah 4954   2]                    Reserved1 : 0000
[135Ch 4956   4]             Proximity Domain : 00000000
[1360h 4960   4]                      Apic ID : FFFFFFFF
[1364h 4964   4]        Flags (decoded below) : 00000000
                                     Enabled : 0
[1368h 4968   4]                 Clock Domain : 00000000
[136Ch 4972   4]                    Reserved2 : 00000000
[1370h 4976   1]                Subtable Type : 02 [Processor Local x2APIC Affinity]
[1371h 4977   1]                       Length : 18
[1372h 4978   2]                    Reserved1 : 0000
[1374h 4980   4]             Proximity Domain : 00000000
[1378h 4984   4]                      Apic ID : FFFFFFFF
[137Ch 4988   4]        Flags (decoded below) : 00000000
                                     Enabled : 0
[1380h 4992   4]                 Clock Domain : 00000000
[1384h 4996   4]                    Reserved2 : 00000000
[1388h 5000   1]                Subtable Type : 02 [Processor Local x2APIC Affinity]
[1389h 5001   1]                       Length : 18
[138Ah 5002   2]                    Reserved1 : 0000
[138Ch 5004   4]             Proximity Domain : 00000000
[1390h 5008   4]                      Apic ID : FFFFFFFF
[1394h 5012   4]        Flags (decoded below) : 00000000
                                     Enabled : 0
[1398h 5016   4]                 Clock Domain : 00000000
[139Ch 5020   4]                    Reserved2 : 00000000
[13A0h 5024   1]                Subtable Type : 02 [Processor Local x2APIC Affinity]
[13A1h 5025   1]                       Length : 18
[13A2h 5026   2]                    Reserved1 : 0000
[13A4h 5028   4]             Proximity Domain : 00000000
[13A8h 5032   4]                      Apic ID : FFFFFFFF
[13ACh 5036   4]        Flags (decoded below) : 00000000
                                     Enabled : 0
[13B0h 5040   4]                 Clock Domain : 00000000
[13B4h 5044   4]                    Reserved2 : 00000000
[13B8h 5048   1]                Subtable Type : 02 [Processor Local x2APIC Affinity]
[13B9h 5049   1]                       Length : 18
[13BAh 5050   2]                    Reserved1 : 0000
[13BCh 5052   4]             Proximity Domain : 00000000
[13C0h 5056   4]                      Apic ID : FFFFFFFF
[13C4h 5060   4]        Flags (decoded below) : 00000000
                                     Enabled : 0
[13C8h 5064   4]                 Clock Domain : 00000000
[13CCh 5068   4]                    Reserved2 : 00000000
[13D0h 5072   1]                Subtable Type : 02 [Processor Local x2APIC Affinity]
[13D1h 5073   1]                       Length : 18
[13D2h 5074   2]                    Reserved1 : 0000
[13D4h 5076   4]             Proximity Domain : 00000000
[13D8h 5080   4]                      Apic ID : FFFFFFFF
[13DCh 5084   4]        Flags (decoded below) : 00000000
                                     Enabled : 0
[13E0h 5088   4]                 Clock Domain : 00000000
[13E4h 5092   4]                    Reserved2 : 00000000
[13E8h 5096   1]                Subtable Type : 02 [Processor Local x2APIC Affinity]
[13E9h 5097   1]                       Length : 18
[13EAh 5098   2]                    Reserved1 : 0000
[13ECh 5100   4]             Proximity Domain : 00000000
[13F0h 5104   4]                      Apic ID : FFFFFFFF
[13F4h 5108   4]        Flags (decoded below) : 00000000
                                     Enabled : 0
[13F8h 5112   4]                 Clock Domain : 00000000
[13FCh 5116   4]                    Reserved2 : 00000000
[1400h 5120   1]                Subtable Type : 02 [Processor Local x2APIC Affinity]
[1401h 5121   1]                       Length : 18
[1402h 5122   2]                    Reserved1 : 0000
[1404h 5124   4]             Proximity Domain : 00000000
[1408h 5128   4]                      Apic ID : FFFFFFFF
[140Ch 5132   4]        Flags (decoded below) : 00000000
                                     Enabled : 0
[1410h 5136   4]                 Clock Domain : 00000000
[1414h 5140   4]                    Reserved2 : 00000000
[1418h 5144   1]                Subtable Type : 02 [Processor Local x2APIC Affinity]
[1419h 5145   1]                       Length : 18
[141Ah 5146   2]                    Reserved1 : 0000
[141Ch 5148   4]             Proximity Domain : 00000000
[1420h 5152   4]                      Apic ID : FFFFFFFF
[1424h 5156   4]        Flags (decoded below) : 00000000
                                     Enabled : 0
[1428h 5160   4]                 Clock Domain : 00000000
[142Ch 5164   4]                    Reserved2 : 00000000

SVOS @ 6cb32ce8 (50 bytes)
----
[000h 0000   4]                    Signature : "SVOS"    
[004h 0004   4]                 Table Length : 00000032
[008h 0008   1]                     Revision : 01
[009h 0009   1]                     Checksum : 04
[00Ah 0010   6]                       Oem ID : "REDACTED0"
[010h 0016   8]                 Oem Table ID : "REDACTEDFOO"
[018h 0024   4]                 Oem Revision : 00000000
[01Ch 0028   4]              Asl Compiler ID : "INTL"
[020h 0032   4]        Asl Compiler Revision : 20091013

  0000: 53 56 4f 53 32 00 00 00 01 04 43 69 73 63 6f 30  SVOS2.....REDACTED0
  0010: 43 69 73 63 6f 55 43 53 00 00 00 00 49 4e 54 4c  REDACTEDFOO....INTL
  0020: 13 10 09 20 fe 00 00 00 00 00 00 00 00 00 00 00  ... ............
  0030: 00 00                                            ..

WDDT @ 6cb32d20 (64 bytes)
----
[000h 0000   4]                    Signature : "WDDT"    [Watchdog Description Table]
[004h 0004   4]                 Table Length : 00000040
[008h 0008   1]                     Revision : 01
[009h 0009   1]                     Checksum : 6C
[00Ah 0010   6]                       Oem ID : "REDACTED0"
[010h 0016   8]                 Oem Table ID : "REDACTEDFOO"
[018h 0024   4]                 Oem Revision : 00000000
[01Ch 0028   4]              Asl Compiler ID : "INTL"
[020h 0032   4]        Asl Compiler Revision : 20091013
[024h 0036   2]        Specification Version : 0000
[026h 0038   2]                Table Version : 0100
[028h 0040   2]                PCI Vendor ID : 0100
[02Ah 0042  12]               Timer Register : [Generic Address Structure]
[02Ah 0042   1]                     Space ID : 01 [SystemIO]
[02Bh 0043   1]                    Bit Width : FF
[02Ch 0044   1]                   Bit Offset : 00
[02Dh 0045   1]         Encoded Access Width : 00 [Undefined/Legacy]
[02Eh 0046   8]                      Address : 0000000000000000
[036h 0054   2]                    Max Count : 003F
[038h 0056   2]                    Min Count : 0004
[03Ah 0058   2]                       Period : 0258
[03Ch 0060   2]       Status (decoded below) : 0001
                                   Available : 1
                                      Active : 0
                                     OS Owns : 0
                                  User Reset : 0
                               Timeout Reset : 0
                            Power Fail Reset : 0
                               Unknown Reset : 0
[03Eh 0062   2]   Capability (decoded below) : 0000
                                  Auto Reset : 0
                               Timeout Alert : 0

OEM4 @ 6cb32d60 (332788 bytes)
----
[000h 0000   4]                    Signature : "OEM4"    
[004h 0004   4]                 Table Length : 000513F4
[008h 0008   1]                     Revision : 02
[009h 0009   1]                     Checksum : F8
[00Ah 0010   6]                       Oem ID : "INTEL"
[010h 0016   8]                 Oem Table ID : "CPU  CST"
[018h 0024   4]                 Oem Revision : 00003000
[01Ch 0028   4]              Asl Compiler ID : "INTL"
[020h 0032   4]        Asl Compiler Revision : 20140828
**** OEM-defined ACPI table [OEM4], unknown contents

OEM1 @ 6cb84158 (86388 bytes)
----
[000h 0000   4]                    Signature : "OEM1"    
[004h 0004   4]                 Table Length : 00015174
[008h 0008   1]                     Revision : 02
[009h 0009   1]                     Checksum : C6
[00Ah 0010   6]                       Oem ID : "INTEL"
[010h 0016   8]                 Oem Table ID : "CPU EIST"
[018h 0024   4]                 Oem Revision : 00003000
[01Ch 0028   4]              Asl Compiler ID : "INTL"
[020h 0032   4]        Asl Compiler Revision : 20140828
**** OEM-defined ACPI table [OEM1], unknown contents

OEM2 @ 6cb992d0 (51780 bytes)
----
[000h 0000   4]                    Signature : "OEM2"    
[004h 0004   4]                 Table Length : 0000CA44
[008h 0008   1]                     Revision : 02
[009h 0009   1]                     Checksum : A3
[00Ah 0010   6]                       Oem ID : "INTEL"
[010h 0016   8]                 Oem Table ID : "CPU  HWP"
[018h 0024   4]                 Oem Revision : 00003000
[01Ch 0028   4]              Asl Compiler ID : "INTL"
[020h 0032   4]        Asl Compiler Revision : 20140828
**** OEM-defined ACPI table [OEM2], unknown contents

SSDT @ 6cba5d18 (105728 bytes)
----
[000h 0000   4]                    Signature : "SSDT"
[004h 0004   4]                 Table Length : 00019d00
[008h 0008   1]                     Revision : 02
[009h 0009   1]                     Checksum : c3
[00Ah 0010   6]                       Oem ID : " INTEL"
[010h 0016   8]                 Oem Table ID : "SSDT  PM"
[018h 0024   4]                 Oem Revision : 00004000
[01Ch 0028   4]              Asl Compiler ID : "INTL"
[020h 0032   4]        Asl Compiler Revision : 20140828
Contains AML Object Code.

SSDT @ 6cbbfa18 (1627 bytes)
----
[000h 0000   4]                    Signature : "SSDT"
[004h 0004   4]                 Table Length : 0000065b
[008h 0008   1]                     Revision : 02
[009h 0009   1]                     Checksum : dc
[00Ah 0010   6]                       Oem ID : "REDACTED0"
[010h 0016   8]                 Oem Table ID : "REDACTEDFOO"
[018h 0024   4]                 Oem Revision : 00000000
[01Ch 0028   4]              Asl Compiler ID : "INTL"
[020h 0032   4]        Asl Compiler Revision : 20091013
Contains AML Object Code.

SSDT @ 6cbc0078 (6964 bytes)
----
[000h 0000   4]                    Signature : "SSDT"
[004h 0004   4]                 Table Length : 00001b34
[008h 0008   1]                     Revision : 02
[009h 0009   1]                     Checksum : 88
[00Ah 0010   6]                       Oem ID : " INTEL"
[010h 0016   8]                 Oem Table ID : "SpsNm   "
[018h 0024   4]                 Oem Revision : 00000002
[01Ch 0028   4]              Asl Compiler ID : "INTL"
[020h 0032   4]        Asl Compiler Revision : 20140828
Contains AML Object Code.

DMAR @ 6cbc1bb0 (568 bytes)
----
[000h 0000   4]                    Signature : "DMAR"    [DMA Remapping table]
[004h 0004   4]                 Table Length : 00000238
[008h 0008   1]                     Revision : 01
[009h 0009   1]                     Checksum : C3
[00Ah 0010   6]                       Oem ID : "REDACTED0"
[010h 0016   8]                 Oem Table ID : "REDACTEDFOO"
[018h 0024   4]                 Oem Revision : 00000001
[01Ch 0028   4]              Asl Compiler ID : "INTL"
[020h 0032   4]        Asl Compiler Revision : 20091013
[024h 0036   1]           Host Address Width : 2D
[025h 0037   1]                        Flags : 03
[026h 0038  10]                     Reserved : 00 00 00 00 00 00 00 00 00 00
[030h 0048   2]                Subtable Type : 0000 [Hardware Unit Definition]
[032h 0050   2]                       Length : 0058
[034h 0052   1]                        Flags : 00
[035h 0053   1]                     Reserved : 00
[036h 0054   2]           PCI Segment Number : 0000
[038h 0056   8]        Register Base Address : 00000000D37FC000
[040h 0064   1]            Device Scope Type : 03 [IOAPIC Device]
[041h 0065   1]                 Entry Length : 08
[042h 0066   2]                     Reserved : 0000
[044h 0068   1]               Enumeration ID : 0F
[045h 0069   1]               PCI Bus Number : 80
[046h 0070   2]                     PCI Path : 05,04
[048h 0072   1]            Device Scope Type : 01 [PCI Endpoint Device]
[049h 0073   1]                 Entry Length : 08
[04Ah 0074   2]                     Reserved : 0000
[04Ch 0076   1]               Enumeration ID : 00
[04Dh 0077   1]               PCI Bus Number : 80
[04Eh 0078   2]                     PCI Path : 04,00
[050h 0080   1]            Device Scope Type : 01 [PCI Endpoint Device]
[051h 0081   1]                 Entry Length : 08
[052h 0082   2]                     Reserved : 0000
[054h 0084   1]               Enumeration ID : 00
[055h 0085   1]               PCI Bus Number : 80
[056h 0086   2]                     PCI Path : 04,01
[058h 0088   1]            Device Scope Type : 01 [PCI Endpoint Device]
[059h 0089   1]                 Entry Length : 08
[05Ah 0090   2]                     Reserved : 0000
[05Ch 0092   1]               Enumeration ID : 00
[05Dh 0093   1]               PCI Bus Number : 80
[05Eh 0094   2]                     PCI Path : 04,02
[060h 0096   1]            Device Scope Type : 01 [PCI Endpoint Device]
[061h 0097   1]                 Entry Length : 08
[062h 0098   2]                     Reserved : 0000
[064h 0100   1]               Enumeration ID : 00
[065h 0101   1]               PCI Bus Number : 80
[066h 0102   2]                     PCI Path : 04,03
[068h 0104   1]            Device Scope Type : 01 [PCI Endpoint Device]
[069h 0105   1]                 Entry Length : 08
[06Ah 0106   2]                     Reserved : 0000
[06Ch 0108   1]               Enumeration ID : 00
[06Dh 0109   1]               PCI Bus Number : 80
[06Eh 0110   2]                     PCI Path : 04,04
[070h 0112   1]            Device Scope Type : 01 [PCI Endpoint Device]
[071h 0113   1]                 Entry Length : 08
[072h 0114   2]                     Reserved : 0000
[074h 0116   1]               Enumeration ID : 00
[075h 0117   1]               PCI Bus Number : 80
[076h 0118   2]                     PCI Path : 04,05
[078h 0120   1]            Device Scope Type : 01 [PCI Endpoint Device]
[079h 0121   1]                 Entry Length : 08
[07Ah 0122   2]                     Reserved : 0000
[07Ch 0124   1]               Enumeration ID : 00
[07Dh 0125   1]               PCI Bus Number : 80
[07Eh 0126   2]                     PCI Path : 04,06
[080h 0128   1]            Device Scope Type : 01 [PCI Endpoint Device]
[081h 0129   1]                 Entry Length : 08
[082h 0130   2]                     Reserved : 0000
[084h 0132   1]               Enumeration ID : 00
[085h 0133   1]               PCI Bus Number : 80
[086h 0134   2]                     PCI Path : 04,07
[088h 0136   2]                Subtable Type : 0000 [Hardware Unit Definition]
[08Ah 0138   2]                       Length : 0018
[08Ch 0140   1]                        Flags : 00
[08Dh 0141   1]                     Reserved : 00
[08Eh 0142   2]           PCI Segment Number : 0000
[090h 0144   8]        Register Base Address : 00000000E0FFC000
[098h 0152   1]            Device Scope Type : 03 [IOAPIC Device]
[099h 0153   1]                 Entry Length : 08
[09Ah 0154   2]                     Reserved : 0000
[09Ch 0156   1]               Enumeration ID : 10
[09Dh 0157   1]               PCI Bus Number : 85
[09Eh 0158   2]                     PCI Path : 05,04
[0A0h 0160   2]                Subtable Type : 0000 [Hardware Unit Definition]
[0A2h 0162   2]                       Length : 0018
[0A4h 0164   1]                        Flags : 00
[0A5h 0165   1]                     Reserved : 00
[0A6h 0166   2]           PCI Segment Number : 0000
[0A8h 0168   8]        Register Base Address : 00000000EE7FC000
[0B0h 0176   1]            Device Scope Type : 03 [IOAPIC Device]
[0B1h 0177   1]                 Entry Length : 08
[0B2h 0178   2]                     Reserved : 0000
[0B4h 0180   1]               Enumeration ID : 11
[0B5h 0181   1]               PCI Bus Number : AE
[0B6h 0182   2]                     PCI Path : 05,04
[0B8h 0184   2]                Subtable Type : 0000 [Hardware Unit Definition]
[0BAh 0186   2]                       Length : 0018
[0BCh 0188   1]                        Flags : 00
[0BDh 0189   1]                     Reserved : 00
[0BEh 0190   2]           PCI Segment Number : 0000
[0C0h 0192   8]        Register Base Address : 00000000FBFFC000
[0C8h 0200   1]            Device Scope Type : 03 [IOAPIC Device]
[0C9h 0201   1]                 Entry Length : 08
[0CAh 0202   2]                     Reserved : 0000
[0CCh 0204   1]               Enumeration ID : 12
[0CDh 0205   1]               PCI Bus Number : D7
[0CEh 0206   2]                     PCI Path : 05,04
[0D0h 0208   2]                Subtable Type : 0000 [Hardware Unit Definition]
[0D2h 0210   2]                       Length : 0028
[0D4h 0212   1]                        Flags : 00
[0D5h 0213   1]                     Reserved : 00
[0D6h 0214   2]           PCI Segment Number : 0000
[0D8h 0216   8]        Register Base Address : 00000000AAFFC000
[0E0h 0224   1]            Device Scope Type : 03 [IOAPIC Device]
[0E1h 0225   1]                 Entry Length : 08
[0E2h 0226   2]                     Reserved : 0000
[0E4h 0228   1]               Enumeration ID : 0A
[0E5h 0229   1]               PCI Bus Number : 17
[0E6h 0230   2]                     PCI Path : 05,04
[0E8h 0232   1]            Device Scope Type : 02 [PCI Bridge Device]
[0E9h 0233   1]                 Entry Length : 08
[0EAh 0234   2]                     Reserved : 0000
[0ECh 0236   1]               Enumeration ID : 00
[0EDh 0237   1]               PCI Bus Number : 17
[0EEh 0238   2]                     PCI Path : 00,00
[0F0h 0240   1]            Device Scope Type : 02 [PCI Bridge Device]
[0F1h 0241   1]                 Entry Length : 08
[0F2h 0242   2]                     Reserved : 0000
[0F4h 0244   1]               Enumeration ID : 00
[0F5h 0245   1]               PCI Bus Number : 17
[0F6h 0246   2]                     PCI Path : 02,00
[0F8h 0248   2]                Subtable Type : 0000 [Hardware Unit Definition]
[0FAh 0250   2]                       Length : 0018
[0FCh 0252   1]                        Flags : 00
[0FDh 0253   1]                     Reserved : 00
[0FEh 0254   2]           PCI Segment Number : 0000
[100h 0256   8]        Register Base Address : 00000000B87FC000
[108h 0264   1]            Device Scope Type : 03 [IOAPIC Device]
[109h 0265   1]                 Entry Length : 08
[10Ah 0266   2]                     Reserved : 0000
[10Ch 0268   1]               Enumeration ID : 0B
[10Dh 0269   1]               PCI Bus Number : 3A
[10Eh 0270   2]                     PCI Path : 05,04
[110h 0272   2]                Subtable Type : 0000 [Hardware Unit Definition]
[112h 0274   2]                       Length : 0020
[114h 0276   1]                        Flags : 00
[115h 0277   1]                     Reserved : 00
[116h 0278   2]           PCI Segment Number : 0000
[118h 0280   8]        Register Base Address : 00000000C5FFC000
[120h 0288   1]            Device Scope Type : 03 [IOAPIC Device]
[121h 0289   1]                 Entry Length : 08
[122h 0290   2]                     Reserved : 0000
[124h 0292   1]               Enumeration ID : 0C
[125h 0293   1]               PCI Bus Number : 5D
[126h 0294   2]                     PCI Path : 05,04
[128h 0296   1]            Device Scope Type : 02 [PCI Bridge Device]
[129h 0297   1]                 Entry Length : 08
[12Ah 0298   2]                     Reserved : 0000
[12Ch 0300   1]               Enumeration ID : 00
[12Dh 0301   1]               PCI Bus Number : 5D
[12Eh 0302   2]                     PCI Path : 00,00
[130h 0304   2]                Subtable Type : 0000 [Hardware Unit Definition]
[132h 0306   2]                       Length : 0028
[134h 0308   1]                        Flags : 01
[135h 0309   1]                     Reserved : 00
[136h 0310   2]           PCI Segment Number : 0000
[138h 0312   8]        Register Base Address : 000000009D7FC000
[140h 0320   1]            Device Scope Type : 03 [IOAPIC Device]
[141h 0321   1]                 Entry Length : 08
[142h 0322   2]                     Reserved : 0000
[144h 0324   1]               Enumeration ID : 08
[145h 0325   1]               PCI Bus Number : F0
[146h 0326   2]                     PCI Path : 1F,00
[148h 0328   1]            Device Scope Type : 03 [IOAPIC Device]
[149h 0329   1]                 Entry Length : 08
[14Ah 0330   2]                     Reserved : 0000
[14Ch 0332   1]               Enumeration ID : 09
[14Dh 0333   1]               PCI Bus Number : 00
[14Eh 0334   2]                     PCI Path : 05,04
[150h 0336   1]            Device Scope Type : 04 [Message-capable HPET Device]
[151h 0337   1]                 Entry Length : 08
[152h 0338   2]                     Reserved : 0000
[154h 0340   1]               Enumeration ID : 00
[155h 0341   1]               PCI Bus Number : 00
[156h 0342   2]                     PCI Path : 1F,00
[158h 0344   2]                Subtable Type : 0001 [Reserved Memory Region]
[15Ah 0346   2]                       Length : 0020
[15Ch 0348   2]                     Reserved : 0000
[15Eh 0350   2]           PCI Segment Number : 0000
[160h 0352   8]                 Base Address : 000000006F086000
[168h 0360   8]          End Address (limit) : 000000006F097FFF
[170h 0368   1]            Device Scope Type : 01 [PCI Endpoint Device]
[171h 0369   1]                 Entry Length : 08
[172h 0370   2]                     Reserved : 0000
[174h 0372   1]               Enumeration ID : 00
[175h 0373   1]               PCI Bus Number : 00
[176h 0374   2]                     PCI Path : 14,00
[178h 0376   2]                Subtable Type : 0002 [Root Port ATS Capability]
[17Ah 0378   2]                       Length : 0020
[17Ch 0380   1]                        Flags : 00
[17Dh 0381   1]                     Reserved : 00
[17Eh 0382   2]           PCI Segment Number : 0000
[180h 0384   1]            Device Scope Type : 02 [PCI Bridge Device]
[181h 0385   1]                 Entry Length : 08
[182h 0386   2]                     Reserved : 0000
[184h 0388   1]               Enumeration ID : 00
[185h 0389   1]               PCI Bus Number : 17
[186h 0390   2]                     PCI Path : 00,00
[188h 0392   1]            Device Scope Type : 02 [PCI Bridge Device]
[189h 0393   1]                 Entry Length : 08
[18Ah 0394   2]                     Reserved : 0000
[18Ch 0396   1]               Enumeration ID : 00
[18Dh 0397   1]               PCI Bus Number : 17
[18Eh 0398   2]                     PCI Path : 02,00
[190h 0400   1]            Device Scope Type : 02 [PCI Bridge Device]
[191h 0401   1]                 Entry Length : 08
[192h 0402   2]                     Reserved : 0000
[194h 0404   1]               Enumeration ID : 00
[195h 0405   1]               PCI Bus Number : 5D
[196h 0406   2]                     PCI Path : 00,00
[198h 0408   2]                Subtable Type : 0003 [Remapping Hardware Static Affinity]
[19Ah 0410   2]                       Length : 0014
[19Ch 0412   4]                     Reserved : 00000000
[1A0h 0416   8]                 Base Address : 000000009D7FC000
[1A8h 0424   4]             Proximity Domain : 00000000
[1ACh 0428   2]                Subtable Type : 0003 [Remapping Hardware Static Affinity]
[1AEh 0430   2]                       Length : 0014
[1B0h 0432   4]                     Reserved : 00000000
[1B4h 0436   8]                 Base Address : 00000000AAFFC000
[1BCh 0444   4]             Proximity Domain : 00000000
[1C0h 0448   2]                Subtable Type : 0003 [Remapping Hardware Static Affinity]
[1C2h 0450   2]                       Length : 0014
[1C4h 0452   4]                     Reserved : 00000000
[1C8h 0456   8]                 Base Address : 00000000B87FC000
[1D0h 0464   4]             Proximity Domain : 00000000
[1D4h 0468   2]                Subtable Type : 0003 [Remapping Hardware Static Affinity]
[1D6h 0470   2]                       Length : 0014
[1D8h 0472   4]                     Reserved : 00000000
[1DCh 0476   8]                 Base Address : 00000000C5FFC000
[1E4h 0484   4]             Proximity Domain : 00000000
[1E8h 0488   2]                Subtable Type : 0003 [Remapping Hardware Static Affinity]
[1EAh 0490   2]                       Length : 0014
[1ECh 0492   4]                     Reserved : 00000000
[1F0h 0496   8]                 Base Address : 00000000D37FC000
[1F8h 0504   4]             Proximity Domain : 00000001
[1FCh 0508   2]                Subtable Type : 0003 [Remapping Hardware Static Affinity]
[1FEh 0510   2]                       Length : 0014
[200h 0512   4]                     Reserved : 00000000
[204h 0516   8]                 Base Address : 00000000E0FFC000
[20Ch 0524   4]             Proximity Domain : 00000001
[210h 0528   2]                Subtable Type : 0003 [Remapping Hardware Static Affinity]
[212h 0530   2]                       Length : 0014
[214h 0532   4]                     Reserved : 00000000
[218h 0536   8]                 Base Address : 00000000EE7FC000
[220h 0544   4]             Proximity Domain : 00000001
[224h 0548   2]                Subtable Type : 0003 [Remapping Hardware Static Affinity]
[226h 0550   2]                       Length : 0014
[228h 0552   4]                     Reserved : 00000000
[22Ch 0556   8]                 Base Address : 00000000FBFFC000
[234h 0564   4]             Proximity Domain : 00000001

HEST @ 6cbc1de8 (168 bytes)
----
[000h 0000   4]                    Signature : "HEST"    [Hardware Error Source Table]
[004h 0004   4]                 Table Length : 000000A8
[008h 0008   1]                     Revision : 01
[009h 0009   1]                     Checksum : AE
[00Ah 0010   6]                       Oem ID : "REDACTED0"
[010h 0016   8]                 Oem Table ID : "REDACTEDFOO"
[018h 0024   4]                 Oem Revision : 00000001
[01Ch 0028   4]              Asl Compiler ID : "INTL"
[020h 0032   4]        Asl Compiler Revision : 00000001
[024h 0036   4]           Error Source Count : 00000002
[028h 0040   2]                Subtable Type : 0009 [Generic Hardware Error Source]
[02Ah 0042   2]                    Source Id : 0000
[02Ch 0044   2]            Related Source Id : FFFF
[02Eh 0046   1]                     Reserved : 00
[02Fh 0047   1]                      Enabled : 01
[030h 0048   4]       Records To Preallocate : 00000001
[034h 0052   4]      Max Sections Per Record : 00000001
[038h 0056   4]          Max Raw Data Length : 00001000
[03Ch 0060  12]         Error Status Address : [Generic Address Structure]
[03Ch 0060   1]                     Space ID : 00 [SystemMemory]
[03Dh 0061   1]                    Bit Width : 40
[03Eh 0062   1]                   Bit Offset : 00
[03Fh 0063   1]         Encoded Access Width : 04 [QWord Access:64]
[040h 0064   8]                      Address : 000000006C7D4018
[048h 0072  28]                       Notify : [Hardware Error Notification Structure]
[048h 0072   1]                  Notify Type : 00 [Polled]
[049h 0073   1]                Notify Length : 1C
[04Ah 0074   2]   Configuration Write Enable : 003E
[04Ch 0076   4]                 PollInterval : 0000EA60
[050h 0080   4]                       Vector : 00000002
[054h 0084   4]      Polling Threshold Value : 00000000
[058h 0088   4]     Polling Threshold Window : 00000000
[05Ch 0092   4]        Error Threshold Value : 00000000
[060h 0096   4]       Error Threshold Window : 00000000
[064h 0100   4]    Error Status Block Length : 00001000
[068h 0104   2]                Subtable Type : 0009 [Generic Hardware Error Source]
[06Ah 0106   2]                    Source Id : 0001
[06Ch 0108   2]            Related Source Id : FFFF
[06Eh 0110   1]                     Reserved : 00
[06Fh 0111   1]                      Enabled : 01
[070h 0112   4]       Records To Preallocate : 00000001
[074h 0116   4]      Max Sections Per Record : 00000001
[078h 0120   4]          Max Raw Data Length : 00001000
[07Ch 0124  12]         Error Status Address : [Generic Address Structure]
[07Ch 0124   1]                     Space ID : 00 [SystemMemory]
[07Dh 0125   1]                    Bit Width : 40
[07Eh 0126   1]                   Bit Offset : 00
[07Fh 0127   1]         Encoded Access Width : 04 [QWord Access:64]
[080h 0128   8]                      Address : 000000006C7D5020
[088h 0136  28]                       Notify : [Hardware Error Notification Structure]
[088h 0136   1]                  Notify Type : 04 [NMI]
[089h 0137   1]                Notify Length : 1C
[08Ah 0138   2]   Configuration Write Enable : 0000
[08Ch 0140   4]                 PollInterval : 00000000
[090h 0144   4]                       Vector : 00000000
[094h 0148   4]      Polling Threshold Value : 00000000
[098h 0152   4]     Polling Threshold Window : 00000000
[09Ch 0156   4]        Error Threshold Value : 00000000
[0A0h 0160   4]       Error Threshold Window : 00000000
[0A4h 0164   4]    Error Status Block Length : 00001000

BERT @ 6cbc1e90 (48 bytes)
----
[000h 0000   4]                    Signature : "BERT"    [Boot Error Record Table]
[004h 0004   4]                 Table Length : 00000030
[008h 0008   1]                     Revision : 01
[009h 0009   1]                     Checksum : 4B
[00Ah 0010   6]                       Oem ID : "REDACTED0"
[010h 0016   8]                 Oem Table ID : "REDACTEDFOO"
[018h 0024   4]                 Oem Revision : 00000001
[01Ch 0028   4]              Asl Compiler ID : "INTL"
[020h 0032   4]        Asl Compiler Revision : 00000001
[024h 0036   4]     Boot Error Region Length : 00008000
[028h 0040   8]    Boot Error Region Address : 00000000deadbeef

ERST @ 6cbc1ec0 (560 bytes)
----
[000h 0000   4]                    Signature : "ERST"    [Error Record Serialization Table]
[004h 0004   4]                 Table Length : 00000230
[008h 0008   1]                     Revision : 01
[009h 0009   1]                     Checksum : 64
[00Ah 0010   6]                       Oem ID : "REDACTED0"
[010h 0016   8]                 Oem Table ID : "REDACTEDFOO"
[018h 0024   4]                 Oem Revision : 00000001
[01Ch 0028   4]              Asl Compiler ID : "INTL"
[020h 0032   4]        Asl Compiler Revision : 00000001
[024h 0036   4]  Serialization Header Length : 00000030
[028h 0040   4]                     Reserved : 00000000
[02Ch 0044   4]      Instruction Entry Count : 00000010
[030h 0048   1]                       Action : 00 [Begin Write Operation]
[031h 0049   1]                  Instruction : 03 [Write Register Value]
[032h 0050   1]        Flags (decoded below) : 00
                      Preserve Register Bits : 0
[033h 0051   1]                     Reserved : 00
[034h 0052  12]              Register Region : [Generic Address Structure]
[034h 0052   1]                     Space ID : 00 [SystemMemory]
[035h 0053   1]                    Bit Width : 08
[036h 0054   1]                   Bit Offset : 00
[037h 0055   1]         Encoded Access Width : 01 [Byte Access:8]
[038h 0056   8]                      Address : 000000006B7CB018
[040h 0064   8]                        Value : 0000000000000000
[048h 0072   8]                         Mask : 00000000000000FF
[050h 0080   1]                       Action : 01 [Begin Read Operation]
[051h 0081   1]                  Instruction : 03 [Write Register Value]
[052h 0082   1]        Flags (decoded below) : 00
                      Preserve Register Bits : 0
[053h 0083   1]                     Reserved : 00
[054h 0084  12]              Register Region : [Generic Address Structure]
[054h 0084   1]                     Space ID : 00 [SystemMemory]
[055h 0085   1]                    Bit Width : 08
[056h 0086   1]                   Bit Offset : 00
[057h 0087   1]         Encoded Access Width : 01 [Byte Access:8]
[058h 0088   8]                      Address : 000000006B7CB018
[060h 0096   8]                        Value : 0000000000000001
[068h 0104   8]                         Mask : 00000000000000FF
[070h 0112   1]                       Action : 02 [Begin Clear Operation]
[071h 0113   1]                  Instruction : 03 [Write Register Value]
[072h 0114   1]        Flags (decoded below) : 00
                      Preserve Register Bits : 0
[073h 0115   1]                     Reserved : 00
[074h 0116  12]              Register Region : [Generic Address Structure]
[074h 0116   1]                     Space ID : 00 [SystemMemory]
[075h 0117   1]                    Bit Width : 08
[076h 0118   1]                   Bit Offset : 00
[077h 0119   1]         Encoded Access Width : 01 [Byte Access:8]
[078h 0120   8]                      Address : 000000006B7CB018
[080h 0128   8]                        Value : 0000000000000002
[088h 0136   8]                         Mask : 00000000000000FF
[090h 0144   1]                       Action : 03 [End Operation]
[091h 0145   1]                  Instruction : 03 [Write Register Value]
[092h 0146   1]        Flags (decoded below) : 00
                      Preserve Register Bits : 0
[093h 0147   1]                     Reserved : 00
[094h 0148  12]              Register Region : [Generic Address Structure]
[094h 0148   1]                     Space ID : 00 [SystemMemory]
[095h 0149   1]                    Bit Width : 08
[096h 0150   1]                   Bit Offset : 00
[097h 0151   1]         Encoded Access Width : 01 [Byte Access:8]
[098h 0152   8]                      Address : 000000006B7CB018
[0A0h 0160   8]                        Value : 0000000000000003
[0A8h 0168   8]                         Mask : 00000000000000FF
[0B0h 0176   1]                       Action : 04 [Set Record Offset]
[0B1h 0177   1]                  Instruction : 02 [Write Register]
[0B2h 0178   1]        Flags (decoded below) : 00
                      Preserve Register Bits : 0
[0B3h 0179   1]                     Reserved : 00
[0B4h 0180  12]              Register Region : [Generic Address Structure]
[0B4h 0180   1]                     Space ID : 00 [SystemMemory]
[0B5h 0181   1]                    Bit Width : 20
[0B6h 0182   1]                   Bit Offset : 00
[0B7h 0183   1]         Encoded Access Width : 03 [DWord Access:32]
[0B8h 0184   8]                      Address : 000000006B7CB01C
[0C0h 0192   8]                        Value : 0000000000000000
[0C8h 0200   8]                         Mask : 00000000FFFFFFFF
[0D0h 0208   1]                       Action : 05 [Execute Operation]
[0D1h 0209   1]                  Instruction : 03 [Write Register Value]
[0D2h 0210   1]        Flags (decoded below) : 00
                      Preserve Register Bits : 0
[0D3h 0211   1]                     Reserved : 00
[0D4h 0212  12]              Register Region : [Generic Address Structure]
[0D4h 0212   1]                     Space ID : 01 [SystemIO]
[0D5h 0213   1]                    Bit Width : 08
[0D6h 0214   1]                   Bit Offset : 00
[0D7h 0215   1]         Encoded Access Width : 01 [Byte Access:8]
[0D8h 0216   8]                      Address : 00000000000000B2
[0E0h 0224   8]                        Value : 0000000000000090
[0E8h 0232   8]                         Mask : 00000000000000FF
[0F0h 0240   1]                       Action : 06 [Check Busy Status]
[0F1h 0241   1]                  Instruction : 01 [Read Register Value]
[0F2h 0242   1]        Flags (decoded below) : 00
                      Preserve Register Bits : 0
[0F3h 0243   1]                     Reserved : 00
[0F4h 0244  12]              Register Region : [Generic Address Structure]
[0F4h 0244   1]                     Space ID : 00 [SystemMemory]
[0F5h 0245   1]                    Bit Width : 08
[0F6h 0246   1]                   Bit Offset : 00
[0F7h 0247   1]         Encoded Access Width : 01 [Byte Access:8]
[0F8h 0248   8]                      Address : 000000006B7CB020
[100h 0256   8]                        Value : 0000000000000001
[108h 0264   8]                         Mask : 00000000000000FF
[110h 0272   1]                       Action : 07 [Get Command Status]
[111h 0273   1]                  Instruction : 00 [Read Register]
[112h 0274   1]        Flags (decoded below) : 00
                      Preserve Register Bits : 0
[113h 0275   1]                     Reserved : 00
[114h 0276  12]              Register Region : [Generic Address Structure]
[114h 0276   1]                     Space ID : 00 [SystemMemory]
[115h 0277   1]                    Bit Width : 08
[116h 0278   1]                   Bit Offset : 00
[117h 0279   1]         Encoded Access Width : 01 [Byte Access:8]
[118h 0280   8]                      Address : 000000006B7CB021
[120h 0288   8]                        Value : 0000000000000000
[128h 0296   8]                         Mask : 00000000000000FF
[130h 0304   1]                       Action : 08 [Get Record Identifier]
[131h 0305   1]                  Instruction : 00 [Read Register]
[132h 0306   1]        Flags (decoded below) : 00
                      Preserve Register Bits : 0
[133h 0307   1]                     Reserved : 00
[134h 0308  12]              Register Region : [Generic Address Structure]
[134h 0308   1]                     Space ID : 00 [SystemMemory]
[135h 0309   1]                    Bit Width : 40
[136h 0310   1]                   Bit Offset : 00
[137h 0311   1]         Encoded Access Width : 04 [QWord Access:64]
[138h 0312   8]                      Address : 000000006B7CB028
[140h 0320   8]                        Value : 0000000000000000
[148h 0328   8]                         Mask : FFFFFFFFFFFFFFFF
[150h 0336   1]                       Action : 09 [Set Record Identifier]
[151h 0337   1]                  Instruction : 02 [Write Register]
[152h 0338   1]        Flags (decoded below) : 00
                      Preserve Register Bits : 0
[153h 0339   1]                     Reserved : 00
[154h 0340  12]              Register Region : [Generic Address Structure]
[154h 0340   1]                     Space ID : 00 [SystemMemory]
[155h 0341   1]                    Bit Width : 40
[156h 0342   1]                   Bit Offset : 00
[157h 0343   1]         Encoded Access Width : 04 [QWord Access:64]
[158h 0344   8]                      Address : 000000006B7CB030
[160h 0352   8]                        Value : 0000000000000000
[168h 0360   8]                         Mask : FFFFFFFFFFFFFFFF
[170h 0368   1]                       Action : 0A [Get Record Count]
[171h 0369   1]                  Instruction : 00 [Read Register]
[172h 0370   1]        Flags (decoded below) : 00
                      Preserve Register Bits : 0
[173h 0371   1]                     Reserved : 00
[174h 0372  12]              Register Region : [Generic Address Structure]
[174h 0372   1]                     Space ID : 00 [SystemMemory]
[175h 0373   1]                    Bit Width : 10
[176h 0374   1]                   Bit Offset : 00
[177h 0375   1]         Encoded Access Width : 02 [Word Access:16]
[178h 0376   8]                      Address : 000000006B7CB038
[180h 0384   8]                        Value : 0000000000000000
[188h 0392   8]                         Mask : 000000000000FFFF
[190h 0400   1]                       Action : 0B [Begin Dummy Write]
[191h 0401   1]                  Instruction : 03 [Write Register Value]
[192h 0402   1]        Flags (decoded below) : 00
                      Preserve Register Bits : 0
[193h 0403   1]                     Reserved : 00
[194h 0404  12]              Register Region : [Generic Address Structure]
[194h 0404   1]                     Space ID : 00 [SystemMemory]
[195h 0405   1]                    Bit Width : 08
[196h 0406   1]                   Bit Offset : 00
[197h 0407   1]         Encoded Access Width : 01 [Byte Access:8]
[198h 0408   8]                      Address : 000000006B7CB018
[1A0h 0416   8]                        Value : 000000000000000B
[1A8h 0424   8]                         Mask : 00000000000000FF
[1B0h 0432   1]                       Action : 0C [Unused/Unknown Action]
[1B1h 0433   1]                  Instruction : 04 [Noop]
[1B2h 0434   1]        Flags (decoded below) : 00
                      Preserve Register Bits : 0
[1B3h 0435   1]                     Reserved : 00
[1B4h 0436  12]              Register Region : [Generic Address Structure]
[1B4h 0436   1]                     Space ID : 00 [SystemMemory]
[1B5h 0437   1]                    Bit Width : 08
[1B6h 0438   1]                   Bit Offset : 00
[1B7h 0439   1]         Encoded Access Width : 01 [Byte Access:8]
[1B8h 0440   8]                      Address : 0000000000000000
[1C0h 0448   8]                        Value : 0000000000000000
[1C8h 0456   8]                         Mask : 00000000000000FF
[1D0h 0464   1]                       Action : 0D [Get Error Address Range]
[1D1h 0465   1]                  Instruction : 00 [Read Register]
[1D2h 0466   1]        Flags (decoded below) : 00
                      Preserve Register Bits : 0
[1D3h 0467   1]                     Reserved : 00
[1D4h 0468  12]              Register Region : [Generic Address Structure]
[1D4h 0468   1]                     Space ID : 00 [SystemMemory]
[1D5h 0469   1]                    Bit Width : 40
[1D6h 0470   1]                   Bit Offset : 00
[1D7h 0471   1]         Encoded Access Width : 04 [QWord Access:64]
[1D8h 0472   8]                      Address : 000000006B7CB040
[1E0h 0480   8]                        Value : 0000000000000000
[1E8h 0488   8]                         Mask : FFFFFFFFFFFFFFFF
[1F0h 0496   1]                       Action : 0E [Get Error Address Length]
[1F1h 0497   1]                  Instruction : 00 [Read Register]
[1F2h 0498   1]        Flags (decoded below) : 00
                      Preserve Register Bits : 0
[1F3h 0499   1]                     Reserved : 00
[1F4h 0500  12]              Register Region : [Generic Address Structure]
[1F4h 0500   1]                     Space ID : 00 [SystemMemory]
[1F5h 0501   1]                    Bit Width : 20
[1F6h 0502   1]                   Bit Offset : 00
[1F7h 0503   1]         Encoded Access Width : 03 [DWord Access:32]
[1F8h 0504   8]                      Address : 000000006B7CB048
[200h 0512   8]                        Value : 0000000000000000
[208h 0520   8]                         Mask : 00000000FFFFFFFF
[210h 0528   1]                       Action : 0F [Get Error Attributes]
[211h 0529   1]                  Instruction : 00 [Read Register]
[212h 0530   1]        Flags (decoded below) : 00
                      Preserve Register Bits : 0
[213h 0531   1]                     Reserved : 00
[214h 0532  12]              Register Region : [Generic Address Structure]
[214h 0532   1]                     Space ID : 00 [SystemMemory]
[215h 0533   1]                    Bit Width : 08
[216h 0534   1]                   Bit Offset : 00
[217h 0535   1]         Encoded Access Width : 01 [Byte Access:8]
[218h 0536   8]                      Address : 000000006B7CB04C
[220h 0544   8]                        Value : 0000000000000000
[228h 0552   8]                         Mask : 00000000000000FF

EINJ @ 6cbc20f0 (336 bytes)
----
[000h 0000   4]                    Signature : "EINJ"    [Error Injection table]
[004h 0004   4]                 Table Length : 00000150
[008h 0008   1]                     Revision : 01
[009h 0009   1]                     Checksum : 3D
[00Ah 0010   6]                       Oem ID : "REDACTED0"
[010h 0016   8]                 Oem Table ID : "REDACTEDFOO"
[018h 0024   4]                 Oem Revision : 00000001
[01Ch 0028   4]              Asl Compiler ID : "INTL"
[020h 0032   4]        Asl Compiler Revision : 00000001
[024h 0036   4]      Injection Header Length : 0000000C
[028h 0040   1]                        Flags : 00
[029h 0041   3]                     Reserved : 000000
[02Ch 0044   4]        Injection Entry Count : 00000009
[030h 0048   1]                       Action : 00 [Begin Operation]
[031h 0049   1]                  Instruction : 00 [Read Register]
[032h 0050   1]        Flags (decoded below) : 00
                      Preserve Register Bits : 0
[033h 0051   1]                     Reserved : 00
[034h 0052  12]              Register Region : [Generic Address Structure]
[034h 0052   1]                     Space ID : 00 [SystemMemory]
[035h 0053   1]                    Bit Width : 00
[036h 0054   1]                   Bit Offset : 00
[037h 0055   1]         Encoded Access Width : 00 [Undefined/Legacy]
[038h 0056   8]                      Address : 0000000000000000
[040h 0064   8]                        Value : 0000000000000000
[048h 0072   8]                         Mask : 0000000000000000
[050h 0080   1]                       Action : 00 [Begin Operation]
[051h 0081   1]                  Instruction : 00 [Read Register]
[052h 0082   1]        Flags (decoded below) : 00
                      Preserve Register Bits : 0
[053h 0083   1]                     Reserved : 00
[054h 0084  12]              Register Region : [Generic Address Structure]
[054h 0084   1]                     Space ID : 00 [SystemMemory]
[055h 0085   1]                    Bit Width : 00
[056h 0086   1]                   Bit Offset : 00
[057h 0087   1]         Encoded Access Width : 00 [Undefined/Legacy]
[058h 0088   8]                      Address : 0000000000000000
[060h 0096   8]                        Value : 0000000000000000
[068h 0104   8]                         Mask : 0000000000000000
[070h 0112   1]                       Action : 00 [Begin Operation]
[071h 0113   1]                  Instruction : 00 [Read Register]
[072h 0114   1]        Flags (decoded below) : 00
                      Preserve Register Bits : 0
[073h 0115   1]                     Reserved : 00
[074h 0116  12]              Register Region : [Generic Address Structure]
[074h 0116   1]                     Space ID : 00 [SystemMemory]
[075h 0117   1]                    Bit Width : 00
[076h 0118   1]                   Bit Offset : 00
[077h 0119   1]         Encoded Access Width : 00 [Undefined/Legacy]
[078h 0120   8]                      Address : 0000000000000000
[080h 0128   8]                        Value : 0000000000000000
[088h 0136   8]                         Mask : 0000000000000000
[090h 0144   1]                       Action : 00 [Begin Operation]
[091h 0145   1]                  Instruction : 00 [Read Register]
[092h 0146   1]        Flags (decoded below) : 00
                      Preserve Register Bits : 0
[093h 0147   1]                     Reserved : 00
[094h 0148  12]              Register Region : [Generic Address Structure]
[094h 0148   1]                     Space ID : 00 [SystemMemory]
[095h 0149   1]                    Bit Width : 00
[096h 0150   1]                   Bit Offset : 00
[097h 0151   1]         Encoded Access Width : 00 [Undefined/Legacy]
[098h 0152   8]                      Address : 0000000000000000
[0A0h 0160   8]                        Value : 0000000000000000
[0A8h 0168   8]                         Mask : 0000000000000000
[0B0h 0176   1]                       Action : 00 [Begin Operation]
[0B1h 0177   1]                  Instruction : 00 [Read Register]
[0B2h 0178   1]        Flags (decoded below) : 00
                      Preserve Register Bits : 0
[0B3h 0179   1]                     Reserved : 00
[0B4h 0180  12]              Register Region : [Generic Address Structure]
[0B4h 0180   1]                     Space ID : 00 [SystemMemory]
[0B5h 0181   1]                    Bit Width : 00
[0B6h 0182   1]                   Bit Offset : 00
[0B7h 0183   1]         Encoded Access Width : 00 [Undefined/Legacy]
[0B8h 0184   8]                      Address : 0000000000000000
[0C0h 0192   8]                        Value : 0000000000000000
[0C8h 0200   8]                         Mask : 0000000000000000
[0D0h 0208   1]                       Action : 00 [Begin Operation]
[0D1h 0209   1]                  Instruction : 00 [Read Register]
[0D2h 0210   1]        Flags (decoded below) : 00
                      Preserve Register Bits : 0
[0D3h 0211   1]                     Reserved : 00
[0D4h 0212  12]              Register Region : [Generic Address Structure]
[0D4h 0212   1]                     Space ID : 00 [SystemMemory]
[0D5h 0213   1]                    Bit Width : 00
[0D6h 0214   1]                   Bit Offset : 00
[0D7h 0215   1]         Encoded Access Width : 00 [Undefined/Legacy]
[0D8h 0216   8]                      Address : 0000000000000000
[0E0h 0224   8]                        Value : 0000000000000000
[0E8h 0232   8]                         Mask : 0000000000000000
[0F0h 0240   1]                       Action : 00 [Begin Operation]
[0F1h 0241   1]                  Instruction : 00 [Read Register]
[0F2h 0242   1]        Flags (decoded below) : 00
                      Preserve Register Bits : 0
[0F3h 0243   1]                     Reserved : 00
[0F4h 0244  12]              Register Region : [Generic Address Structure]
[0F4h 0244   1]                     Space ID : 00 [SystemMemory]
[0F5h 0245   1]                    Bit Width : 00
[0F6h 0246   1]                   Bit Offset : 00
[0F7h 0247   1]         Encoded Access Width : 00 [Undefined/Legacy]
[0F8h 0248   8]                      Address : 0000000000000000
[100h 0256   8]                        Value : 0000000000000000
[108h 0264   8]                         Mask : 0000000000000000
[110h 0272   1]                       Action : 00 [Begin Operation]
[111h 0273   1]                  Instruction : 00 [Read Register]
[112h 0274   1]        Flags (decoded below) : 00
                      Preserve Register Bits : 0
[113h 0275   1]                     Reserved : 00
[114h 0276  12]              Register Region : [Generic Address Structure]
[114h 0276   1]                     Space ID : 00 [SystemMemory]
[115h 0277   1]                    Bit Width : 00
[116h 0278   1]                   Bit Offset : 00
[117h 0279   1]         Encoded Access Width : 00 [Undefined/Legacy]
[118h 0280   8]                      Address : 0000000000000000
[120h 0288   8]                        Value : 0000000000000000
[128h 0296   8]                         Mask : 0000000000000000
[130h 0304   1]                       Action : 00 [Begin Operation]
[131h 0305   1]                  Instruction : 00 [Read Register]
[132h 0306   1]        Flags (decoded below) : 00
                      Preserve Register Bits : 0
[133h 0307   1]                     Reserved : 00
[134h 0308  12]              Register Region : [Generic Address Structure]
[134h 0308   1]                     Space ID : 00 [SystemMemory]
[135h 0309   1]                    Bit Width : 00
[136h 0310   1]                   Bit Offset : 00
[137h 0311   1]         Encoded Access Width : 00 [Undefined/Legacy]
[138h 0312   8]                      Address : 0000000000000000
[140h 0320   8]                        Value : 0000000000000000
[148h 0328   8]                         Mask : 0000000000000000

RSDT @ 6cad6028 (156 bytes)
----
[000h 0000   4]                    Signature : "RSDT"    [Root System Description Table]
[004h 0004   4]                 Table Length : 0000009C
[008h 0008   1]                     Revision : 01
[009h 0009   1]                     Checksum : 05
[00Ah 0010   6]                       Oem ID : "REDACTED0"
[010h 0016   8]                 Oem Table ID : "REDACTEDFOO"
[018h 0024   4]                 Oem Revision : xxxxxxxx
[01Ch 0028   4]              Asl Compiler ID : "MSFT"
[020h 0032   4]        Asl Compiler Revision : 00010013
[024h 0036   4]       ACPI Table Address   0 : 6CAD61F0
[028h 0040   4]       ACPI Table Address   1 : 6CB18820
[02Ch 0044   4]       ACPI Table Address   2 : 6CB18868
[030h 0048   4]       ACPI Table Address   3 : 6CB18908
[034h 0052   4]       ACPI Table Address   4 : 6CB18950
[038h 0056   4]       ACPI Table Address   5 : 6CB189B0
[03Ch 0060   4]       ACPI Table Address   6 : 6CB189F8
[040h 0064   4]       ACPI Table Address   7 : 6CB18A38
[044h 0068   4]       ACPI Table Address   8 : 6CB18A70
[048h 0072   4]       ACPI Table Address   9 : 6CB196D0
[04Ch 0076   4]       ACPI Table Address  10 : 6CB19710
[050h 0080   4]       ACPI Table Address  11 : 6CB19778
[054h 0084   4]       ACPI Table Address  12 : 6CB317A0
[058h 0088   4]       ACPI Table Address  13 : 6CB317E8
[05Ch 0092   4]       ACPI Table Address  14 : 6CB31858
[060h 0096   4]       ACPI Table Address  15 : 6CB31888
[064h 0100   4]       ACPI Table Address  16 : 6CB318B8
[068h 0104   4]       ACPI Table Address  17 : 6CB32CE8
[06Ch 0108   4]       ACPI Table Address  18 : 6CB32D20
[070h 0112   4]       ACPI Table Address  19 : 6CB32D60
[074h 0116   4]       ACPI Table Address  20 : 6CB84158
[078h 0120   4]       ACPI Table Address  21 : 6CB992D0
[07Ch 0124   4]       ACPI Table Address  22 : 6CBA5D18
[080h 0128   4]       ACPI Table Address  23 : 6CBBFA18
[084h 0132   4]       ACPI Table Address  24 : 6CBC0078
[088h 0136   4]       ACPI Table Address  25 : 6CBC1BB0
[08Ch 0140   4]       ACPI Table Address  26 : 6CBC1DE8
[090h 0144   4]       ACPI Table Address  27 : 6CBC1E90
[094h 0148   4]       ACPI Table Address  28 : 6CBC1EC0
[098h 0152   4]       ACPI Table Address  29 : 6CBC20F0

FACS @ 6d234040 (64 bytes)
----
[000h 0000   4]                    Signature : "FACS"
[004h 0004   4]                       Length : 00000040
[008h 0008   4]           Hardware Signature : 00000081
[00Ch 0012   4]    32 Firmware Waking Vector : 00000000
[010h 0016   4]                  Global Lock : 00000000
[014h 0020   4]        Flags (decoded below) : 00000000
                      S4BIOS Support Present : 0
                  64-bit Wake Supported (V2) : 0
[018h 0024   8]    64 Firmware Waking Vector : 0000000000000000
[020h 0032   1]                      Version : 00
[021h 0033   3]                     Reserved : 000000
[024h 0036   4]    OspmFlags (decoded below) : 00000000
               64-bit Wake Env Required (V2) : 0

FACP @ 6cad61f0 (132 bytes)
----
[000h 0000   4]                    Signature : "FACP"    [Fixed ACPI Description Table (FADT)]
[004h 0004   4]                 Table Length : 00000084
[008h 0008   1]                     Revision : 02
[009h 0009   1]                     Checksum : 99
[00Ah 0010   6]                       Oem ID : "REDACTED0"
[010h 0016   8]                 Oem Table ID : "REDACTEDFOO"
[018h 0024   4]                 Oem Revision : xxxxxxxx
[01Ch 0028   4]              Asl Compiler ID : "INTL"
[020h 0032   4]        Asl Compiler Revision : 20091013
[024h 0036   4]                 FACS Address : 6D234040
[028h 0040   4]                 DSDT Address : 6CAD6278
[02Ch 0044   1]                        Model : 00
[02Dh 0045   1]                   PM Profile : 04 [Enterprise Server]
[02Eh 0046   2]                SCI Interrupt : 0009
[030h 0048   4]             SMI Command Port : 000000B2
[034h 0052   1]            ACPI Enable Value : A0
[035h 0053   1]           ACPI Disable Value : A1
[036h 0054   1]               S4BIOS Command : 00
[037h 0055   1]              P-State Control : 00
[038h 0056   4]     PM1A Event Block Address : 00000500
[03Ch 0060   4]     PM1B Event Block Address : 00000000
[040h 0064   4]   PM1A Control Block Address : 00000504
[044h 0068   4]   PM1B Control Block Address : 00000000
[048h 0072   4]    PM2 Control Block Address : 00000550
[04Ch 0076   4]       PM Timer Block Address : 00000508
[050h 0080   4]           GPE0 Block Address : 00000580
[054h 0084   4]           GPE1 Block Address : 00000000
[058h 0088   1]       PM1 Event Block Length : 04
[059h 0089   1]     PM1 Control Block Length : 02
[05Ah 0090   1]     PM2 Control Block Length : 01
[05Bh 0091   1]        PM Timer Block Length : 04
[05Ch 0092   1]            GPE0 Block Length : 20
[05Dh 0093   1]            GPE1 Block Length : 00
[05Eh 0094   1]             GPE1 Base Offset : 00
[05Fh 0095   1]                 _CST Support : 00
[060h 0096   2]                   C2 Latency : 0065
[062h 0098   2]                   C3 Latency : 03E9
[064h 0100   2]               CPU Cache Size : 0400
[066h 0102   2]           Cache Flush Stride : 0010
[068h 0104   1]            Duty Cycle Offset : 01
[069h 0105   1]             Duty Cycle Width : 00
[06Ah 0106   1]          RTC Day Alarm Index : 0D
[06Bh 0107   1]        RTC Month Alarm Index : 00
[06Ch 0108   1]            RTC Century Index : 32
[06Dh 0109   2]   Boot Flags (decoded below) : 0011
               Legacy Devices Supported (V2) : 1
            8042 Present on ports 60/64 (V2) : 0
                        VGA Not Present (V4) : 0
                      MSI Not Supported (V4) : 0
                PCIe ASPM Not Supported (V4) : 1
                   CMOS RTC Not Present (V5) : 0
[06Fh 0111   1]                     Reserved : 00
[070h 0112   4]        Flags (decoded below) : 000084A5
      WBINVD instruction is operational (V1) : 1
              WBINVD flushes all caches (V1) : 0
                    All CPUs support C1 (V1) : 1
                  C2 works on MP system (V1) : 0
            Control Method Power Button (V1) : 0
            Control Method Sleep Button (V1) : 1
        RTC wake not in fixed reg space (V1) : 0
            RTC can wake system from S4 (V1) : 1
                        32-bit PM Timer (V1) : 0
                      Docking Supported (V1) : 0
               Reset Register Supported (V2) : 1
                            Sealed Case (V3) : 0
                    Headless - No Video (V3) : 0
        Use native instr after SLP_TYPx (V3) : 0
              PCIEXP_WAK Bits Supported (V4) : 0
                     Use Platform Timer (V4) : 1
               RTC_STS valid on S4 wake (V4) : 0
                Remote Power-on capable (V4) : 0
                 Use APIC Cluster Model (V4) : 0
     Use APIC Physical Destination Mode (V4) : 0
                       Hardware Reduced (V5) : 0
                      Low Power S0 Idle (V5) : 0
[074h 0116  12]               Reset Register : [Generic Address Structure]
[074h 0116   1]                     Space ID : 01 [SystemIO]
[075h 0117   1]                    Bit Width : 08
[076h 0118   1]                   Bit Offset : 00
[077h 0119   1]         Encoded Access Width : 00 [Undefined/Legacy]
[078h 0120   8]                      Address : 0000000000000CF9
[080h 0128   1]         Value to cause reset : 06
[081h 0129   2]                     Reserved : 0000
[083h 0131   1]                     Reserved : 00

